
Dump of file D:\baita\CChart\CCHART~1\Library\CChartu.lib

File Type: LIBRARY

     Exports

       ordinal    name

                  ??0CChart@NsCChart@@QAE@ABV01@@Z (public: __thiscall NsCChart::CChart::CChart(class NsCChart::CChart const &))
                  ??0CChart@NsCChart@@QAE@XZ (public: __thiscall NsCChart::CChart::CChart(void))
                  ??0CChartWnd@NsCChart@@QAE@XZ (public: __thiscall NsCChart::CChartWnd::CChartWnd(void))
                  ??1CChart@NsCChart@@QAE@XZ (public: __thiscall NsCChart::CChart::~CChart(void))
                  ??1CChartWnd@NsCChart@@QAE@XZ (public: __thiscall NsCChart::CChartWnd::~CChartWnd(void))
                  ??4CChart@NsCChart@@QAEAAV01@ABV01@@Z (public: class NsCChart::CChart & __thiscall NsCChart::CChart::operator=(class NsCChart::CChart const &))
                  ??4CChartWnd@NsCChart@@QAEAAV01@ABV01@@Z (public: class NsCChart::CChartWnd & __thiscall NsCChart::CChartWnd::operator=(class NsCChart::CChartWnd const &))
                  ??_7CChart@NsCChart@@6B@ (const NsCChart::CChart::`vftable')
                  ?AddAlternateLabel@CChart@NsCChart@@QAEXPA_WH@Z (public: void __thiscall NsCChart::CChart::AddAlternateLabel(wchar_t *,int))
                  ?AddAlternateLabel@CChart@NsCChart@@QAEXPA_WHH@Z (public: void __thiscall NsCChart::CChart::AddAlternateLabel(wchar_t *,int,int))
                  ?AddAlternateLabel@Classless@@YAXPA_WH@Z (void __cdecl Classless::AddAlternateLabel(wchar_t *,int))
                  ?AddAlternateLabel@Classless@@YAXPA_WHH@Z (void __cdecl Classless::AddAlternateLabel(wchar_t *,int,int))
                  ?AddAxis@CChart@NsCChart@@QAEXHH@Z (public: void __thiscall NsCChart::CChart::AddAxis(int,int))
                  ?AddAxis@Classless@@YAXHH@Z (void __cdecl Classless::AddAxis(int,int))
                  ?AddComment@CChart@NsCChart@@QAEHPA_WNNH@Z (public: int __thiscall NsCChart::CChart::AddComment(wchar_t *,double,double,int))
                  ?AddComment@Classless@@YAHPA_WNNH@Z (int __cdecl Classless::AddComment(wchar_t *,double,double,int))
                  ?AddContourPoint@CChart@NsCChart@@QAEXNNN@Z (public: void __thiscall NsCChart::CChart::AddContourPoint(double,double,double))
                  ?AddContourPoint@Classless@@YAXNNN@Z (void __cdecl Classless::AddContourPoint(double,double,double))
                  ?AddCurve@CChart@NsCChart@@QAEHH@Z (public: int __thiscall NsCChart::CChart::AddCurve(int))
                  ?AddCurve@CChart@NsCChart@@QAEHPAN00H@Z (public: int __thiscall NsCChart::CChart::AddCurve(double *,double *,double *,int))
                  ?AddCurve@CChart@NsCChart@@QAEHPAN0HH@Z (public: int __thiscall NsCChart::CChart::AddCurve(double *,double *,int,int))
                  ?AddCurve@CChart@NsCChart@@QAEHPAPA_WPA_WPANHH@Z (public: int __thiscall NsCChart::CChart::AddCurve(wchar_t * *,wchar_t *,double *,int,int))
                  ?AddCurve@Classless@@YAHH@Z (int __cdecl Classless::AddCurve(int))
                  ?AddCurve@Classless@@YAHPAN00H@Z (int __cdecl Classless::AddCurve(double *,double *,double *,int))
                  ?AddCurve@Classless@@YAHPAN0HH@Z (int __cdecl Classless::AddCurve(double *,double *,int,int))
                  ?AddCurve@Classless@@YAHPAPA_WPA_WPANHH@Z (int __cdecl Classless::AddCurve(wchar_t * *,wchar_t *,double *,int,int))
                  ?AddDataPointColor@CChart@NsCChart@@QAEXKHH@Z (public: void __thiscall NsCChart::CChart::AddDataPointColor(unsigned long,int,int))
                  ?AddDataPointColor@Classless@@YAXKHH@Z (void __cdecl Classless::AddDataPointColor(unsigned long,int,int))
                  ?AddDataPointComment@CChart@NsCChart@@QAEXPA_WHHH@Z (public: void __thiscall NsCChart::CChart::AddDataPointComment(wchar_t *,int,int,int))
                  ?AddDataPointComment@Classless@@YAXPA_WHHH@Z (void __cdecl Classless::AddDataPointComment(wchar_t *,int,int,int))
                  ?AddDataSegHidden@CChart@NsCChart@@QAEXHHH@Z (public: void __thiscall NsCChart::CChart::AddDataSegHidden(int,int,int))
                  ?AddDataSegHidden@Classless@@YAXHHH@Z (void __cdecl Classless::AddDataSegHidden(int,int,int))
                  ?AddLayer@CChart@NsCChart@@QAEHXZ (public: int __thiscall NsCChart::CChart::AddLayer(void))
                  ?AddLayer@Classless@@YAHXZ (int __cdecl Classless::AddLayer(void))
                  ?AddPie@CChart@NsCChart@@QAEHN@Z (public: int __thiscall NsCChart::CChart::AddPie(double))
                  ?AddPie@CChart@NsCChart@@QAEHNPA_W@Z (public: int __thiscall NsCChart::CChart::AddPie(double,wchar_t *))
                  ?AddPie@Classless@@YAHN@Z (int __cdecl Classless::AddPie(double))
                  ?AddPie@Classless@@YAHNPA_W@Z (int __cdecl Classless::AddPie(double,wchar_t *))
                  ?AddPoint2D@CChart@NsCChart@@QAEHNNHH@Z (public: int __thiscall NsCChart::CChart::AddPoint2D(double,double,int,int))
                  ?AddPoint2D@CChart@NsCChart@@QAEHPA_W0NHH@Z (public: int __thiscall NsCChart::CChart::AddPoint2D(wchar_t *,wchar_t *,double,int,int))
                  ?AddPoint2D@Classless@@YAHNNHH@Z (int __cdecl Classless::AddPoint2D(double,double,int,int))
                  ?AddPoint2D@Classless@@YAHPA_W0NHH@Z (int __cdecl Classless::AddPoint2D(wchar_t *,wchar_t *,double,int,int))
                  ?AddPoint3D@CChart@NsCChart@@QAEHNNNH@Z (public: int __thiscall NsCChart::CChart::AddPoint3D(double,double,double,int))
                  ?AddPoint3D@Classless@@YAHNNNH@Z (int __cdecl Classless::AddPoint3D(double,double,double,int))
                  ?AddPoints2D@CChart@NsCChart@@QAEHPAN0HHH@Z (public: int __thiscall NsCChart::CChart::AddPoints2D(double *,double *,int,int,int))
                  ?AddPoints2D@Classless@@YAHPAN0HHH@Z (int __cdecl Classless::AddPoints2D(double *,double *,int,int,int))
                  ?AddRange4LabelHiden@CChart@NsCChart@@QAEXNNH@Z (public: void __thiscall NsCChart::CChart::AddRange4LabelHiden(double,double,int))
                  ?AddRange4LabelHiden@CChart@NsCChart@@QAEXNNHH@Z (public: void __thiscall NsCChart::CChart::AddRange4LabelHiden(double,double,int,int))
                  ?AddRange4LabelHiden@Classless@@YAXNNH@Z (void __cdecl Classless::AddRange4LabelHiden(double,double,int))
                  ?AddRange4LabelHiden@Classless@@YAXNNHH@Z (void __cdecl Classless::AddRange4LabelHiden(double,double,int,int))
                  ?AddSegmentColor@CChart@NsCChart@@QAEXNKHH@Z (public: void __thiscall NsCChart::CChart::AddSegmentColor(double,unsigned long,int,int))
                  ?AddSegmentColor@Classless@@YAXNKHH@Z (void __cdecl Classless::AddSegmentColor(double,unsigned long,int,int))
                  ?AddStems@CChart@NsCChart@@QAEHPANH@Z (public: int __thiscall NsCChart::CChart::AddStems(double *,int))
                  ?AddStems@CChart@NsCChart@@QAEHPANHPA_W@Z (public: int __thiscall NsCChart::CChart::AddStems(double *,int,wchar_t *))
                  ?AddStems@Classless@@YAHPANH@Z (int __cdecl Classless::AddStems(double *,int))
                  ?AddStems@Classless@@YAHPANHPA_W@Z (int __cdecl Classless::AddStems(double *,int,wchar_t *))
                  ?Attach@CChartWnd@NsCChart@@QAEHPAUHWND__@@@Z (public: int __thiscall NsCChart::CChartWnd::Attach(struct HWND__ *))
                  ?Attach@CChartWnd@NsCChart@@QAEHPAUHWND__@@H@Z (public: int __thiscall NsCChart::CChartWnd::Attach(struct HWND__ *,int))
                  ?Attach@CChartWnd@NsCChart@@QAEHPAUHWND__@@UtagRECT@@@Z (public: int __thiscall NsCChart::CChartWnd::Attach(struct HWND__ *,struct tagRECT))
                  ?Attach@CChartWnd@NsCChart@@QAEHPAUHWND__@@UtagRECT@@H@Z (public: int __thiscall NsCChart::CChartWnd::Attach(struct HWND__ *,struct tagRECT,int))
                  ?Attach@Classless@@YAHPAUHWND__@@@Z (int __cdecl Classless::Attach(struct HWND__ *))
                  ?Attach@Classless@@YAHPAUHWND__@@H@Z (int __cdecl Classless::Attach(struct HWND__ *,int))
                  ?Attach@Classless@@YAHPAUHWND__@@UtagRECT@@@Z (int __cdecl Classless::Attach(struct HWND__ *,struct tagRECT))
                  ?Attach@Classless@@YAHPAUHWND__@@UtagRECT@@H@Z (int __cdecl Classless::Attach(struct HWND__ *,struct tagRECT,int))
                  ?AttachDlg@CChartWnd@NsCChart@@QAEHPAUHWND__@@0@Z (public: int __thiscall NsCChart::CChartWnd::AttachDlg(struct HWND__ *,struct HWND__ *))
                  ?AttachDlg@CChartWnd@NsCChart@@QAEHPAUHWND__@@0H@Z (public: int __thiscall NsCChart::CChartWnd::AttachDlg(struct HWND__ *,struct HWND__ *,int))
                  ?AttachDlg@CChartWnd@NsCChart@@QAEHPAUHWND__@@I@Z (public: int __thiscall NsCChart::CChartWnd::AttachDlg(struct HWND__ *,unsigned int))
                  ?AttachDlg@CChartWnd@NsCChart@@QAEHPAUHWND__@@IH@Z (public: int __thiscall NsCChart::CChartWnd::AttachDlg(struct HWND__ *,unsigned int,int))
                  ?AttachDlg@Classless@@YAHPAUHWND__@@0@Z (int __cdecl Classless::AttachDlg(struct HWND__ *,struct HWND__ *))
                  ?AttachDlg@Classless@@YAHPAUHWND__@@0H@Z (int __cdecl Classless::AttachDlg(struct HWND__ *,struct HWND__ *,int))
                  ?AttachDlg@Classless@@YAHPAUHWND__@@I@Z (int __cdecl Classless::AttachDlg(struct HWND__ *,unsigned int))
                  ?AttachDlg@Classless@@YAHPAUHWND__@@IH@Z (int __cdecl Classless::AttachDlg(struct HWND__ *,unsigned int,int))
                  ?CheckPlotType@CChart@NsCChart@@SA_NH@Z (public: static bool __cdecl NsCChart::CChart::CheckPlotType(int))
                  ?CheckPlotType@Classless@@YA_NH@Z (bool __cdecl Classless::CheckPlotType(int))
                  ?CheckSubPlotIndex@CChart@NsCChart@@QAE_NH@Z (public: bool __thiscall NsCChart::CChart::CheckSubPlotIndex(int))
                  ?CheckSubPlotIndex@Classless@@YA_NH@Z (bool __cdecl Classless::CheckSubPlotIndex(int))
                  ?ClientToData@CChart@NsCChart@@QAEXPAUtagPOINT@@PANH@Z (public: void __thiscall NsCChart::CChart::ClientToData(struct tagPOINT *,double *,int))
                  ?ClientToData@Classless@@YAXPAUtagPOINT@@PANH@Z (void __cdecl Classless::ClientToData(struct tagPOINT *,double *,int))
                  ?ClrAllData@CChart@NsCChart@@QAEXXZ (public: void __thiscall NsCChart::CChart::ClrAllData(void))
                  ?ClrAllData@Classless@@YAXXZ (void __cdecl Classless::ClrAllData(void))
                  ?ClrAlternateLabel@CChart@NsCChart@@QAEXH@Z (public: void __thiscall NsCChart::CChart::ClrAlternateLabel(int))
                  ?ClrAlternateLabel@CChart@NsCChart@@QAEXHH@Z (public: void __thiscall NsCChart::CChart::ClrAlternateLabel(int,int))
                  ?ClrAlternateLabel@Classless@@YAXH@Z (void __cdecl Classless::ClrAlternateLabel(int))
                  ?ClrAlternateLabel@Classless@@YAXHH@Z (void __cdecl Classless::ClrAlternateLabel(int,int))
                  ?ClrContourPoints@CChart@NsCChart@@QAEXXZ (public: void __thiscall NsCChart::CChart::ClrContourPoints(void))
                  ?ClrContourPoints@Classless@@YAXXZ (void __cdecl Classless::ClrContourPoints(void))
                  ?ClrDataSegHidden@CChart@NsCChart@@QAEXHH@Z (public: void __thiscall NsCChart::CChart::ClrDataSegHidden(int,int))
                  ?ClrDataSegHidden@Classless@@YAXHH@Z (void __cdecl Classless::ClrDataSegHidden(int,int))
                  ?ClrFirstSegHidden@CChart@NsCChart@@QAEXHH@Z (public: void __thiscall NsCChart::CChart::ClrFirstSegHidden(int,int))
                  ?ClrFirstSegHidden@Classless@@YAXHH@Z (void __cdecl Classless::ClrFirstSegHidden(int,int))
                  ?ClrLastSegHidden@CChart@NsCChart@@QAEXHH@Z (public: void __thiscall NsCChart::CChart::ClrLastSegHidden(int,int))
                  ?ClrLastSegHidden@Classless@@YAXHH@Z (void __cdecl Classless::ClrLastSegHidden(int,int))
                  ?ClrPlotData@CChart@NsCChart@@QAEXH@Z (public: void __thiscall NsCChart::CChart::ClrPlotData(int))
                  ?ClrPlotData@Classless@@YAXH@Z (void __cdecl Classless::ClrPlotData(int))
                  ?ClrSingleData@CChart@NsCChart@@QAEXHH@Z (public: void __thiscall NsCChart::CChart::ClrSingleData(int,int))
                  ?ClrSingleData@Classless@@YAXHH@Z (void __cdecl Classless::ClrSingleData(int,int))
                  ?CopyImageToClipBoard@CChart@NsCChart@@QAEXPAUHWND__@@@Z (public: void __thiscall NsCChart::CChart::CopyImageToClipBoard(struct HWND__ *))
                  ?CopyImageToClipBoard@Classless@@YAXPAUHWND__@@@Z (void __cdecl Classless::CopyImageToClipBoard(struct HWND__ *))
                  ?CreateChart@CChart@NsCChart@@QAE_NH@Z (public: bool __thiscall NsCChart::CChart::CreateChart(int))
                  ?CreateChart@CChart@NsCChart@@QAE_NHPAUHWND__@@@Z (public: bool __thiscall NsCChart::CChart::CreateChart(int,struct HWND__ *))
                  ?CreateChart@Classless@@YAXXZ (void __cdecl Classless::CreateChart(void))
                  ?CreateChart@Classless@@YA_NH@Z (bool __cdecl Classless::CreateChart(int))
                  ?CreateChart@Classless@@YA_NHPAUHWND__@@@Z (bool __cdecl Classless::CreateChart(int,struct HWND__ *))
                  ?CreatePopupChartWnd@NsCChart@@YAPAUHWND__@@PAU2@HPA_WHHHH@Z (struct HWND__ * __cdecl NsCChart::CreatePopupChartWnd(struct HWND__ *,int,wchar_t *,int,int,int,int))
                  ?CreatePopupChartWndGlobal@Classless@@YAPAUHWND__@@PAU2@HPA_WHHHH@Z (struct HWND__ * __cdecl Classless::CreatePopupChartWndGlobal(struct HWND__ *,int,wchar_t *,int,int,int,int))
                  ?CreatePopupChartWndGlobalWithMsgLoop@Classless@@YAPAUHWND__@@PAU2@HPA_WHHHH@Z (struct HWND__ * __cdecl Classless::CreatePopupChartWndGlobalWithMsgLoop(struct HWND__ *,int,wchar_t *,int,int,int,int))
                  ?CreatePopupChartWndWithMsgLoop@NsCChart@@YAPAUHWND__@@PAU2@HPA_WHHHH@Z (struct HWND__ * __cdecl NsCChart::CreatePopupChartWndWithMsgLoop(struct HWND__ *,int,wchar_t *,int,int,int,int))
                  ?CreateSubChartWnd@NsCChart@@YAPAUHWND__@@PAU2@HPA_WHHHH@Z (struct HWND__ * __cdecl NsCChart::CreateSubChartWnd(struct HWND__ *,int,wchar_t *,int,int,int,int))
                  ?CreateSubChartWndGlobal@Classless@@YAPAUHWND__@@PAU2@HPA_WHHHH@Z (struct HWND__ * __cdecl Classless::CreateSubChartWndGlobal(struct HWND__ *,int,wchar_t *,int,int,int,int))
                  ?DataToClient@CChart@NsCChart@@QAEXPANPAUtagPOINT@@H@Z (public: void __thiscall NsCChart::CChart::DataToClient(double *,struct tagPOINT *,int))
                  ?DataToClient@Classless@@YAXPANPAUtagPOINT@@H@Z (void __cdecl Classless::DataToClient(double *,struct tagPOINT *,int))
                  ?DeleteAxes@CChart@NsCChart@@QAEXH@Z (public: void __thiscall NsCChart::CChart::DeleteAxes(int))
                  ?DeleteAxes@CChart@NsCChart@@QAEXXZ (public: void __thiscall NsCChart::CChart::DeleteAxes(void))
                  ?DeleteAxes@Classless@@YAXH@Z (void __cdecl Classless::DeleteAxes(int))
                  ?DeleteAxes@Classless@@YAXXZ (void __cdecl Classless::DeleteAxes(void))
                  ?DeleteAxisByLocation@CChart@NsCChart@@QAEXH@Z (public: void __thiscall NsCChart::CChart::DeleteAxisByLocation(int))
                  ?DeleteAxisByLocation@CChart@NsCChart@@QAEXHH@Z (public: void __thiscall NsCChart::CChart::DeleteAxisByLocation(int,int))
                  ?DeleteAxisByLocation@Classless@@YAXH@Z (void __cdecl Classless::DeleteAxisByLocation(int))
                  ?DeleteAxisByLocation@Classless@@YAXHH@Z (void __cdecl Classless::DeleteAxisByLocation(int,int))
                  ?DestroyChart@Classless@@YAXXZ (void __cdecl Classless::DestroyChart(void))
                  ?Detach@CChartWnd@NsCChart@@QAE_NPAUHWND__@@@Z (public: bool __thiscall NsCChart::CChartWnd::Detach(struct HWND__ *))
                  ?Detach@CChartWnd@NsCChart@@QAE_NXZ (public: bool __thiscall NsCChart::CChartWnd::Detach(void))
                  ?Detach@Classless@@YA_NPAUHWND__@@@Z (bool __cdecl Classless::Detach(struct HWND__ *))
                  ?Detach@Classless@@YA_NXZ (bool __cdecl Classless::Detach(void))
                  ?EmptySingleData@CChart@NsCChart@@QAEXHH@Z (public: void __thiscall NsCChart::CChart::EmptySingleData(int,int))
                  ?EmptySingleData@Classless@@YAXHH@Z (void __cdecl Classless::EmptySingleData(int,int))
                  ?EraseDataPointColor@CChart@NsCChart@@QAEXHHH@Z (public: void __thiscall NsCChart::CChart::EraseDataPointColor(int,int,int))
                  ?EraseDataPointColor@Classless@@YAXHHH@Z (void __cdecl Classless::EraseDataPointColor(int,int,int))
                  ?GetApperanceMode@CChart@NsCChart@@QAEHXZ (public: int __thiscall NsCChart::CChart::GetApperanceMode(void))
                  ?GetApperanceMode@Classless@@YAHXZ (int __cdecl Classless::GetApperanceMode(void))
                  ?GetAxis@CChart@NsCChart@@AAEPAXH@Z (private: void * __thiscall NsCChart::CChart::GetAxis(int))
                  ?GetAxis@CChart@NsCChart@@AAEPAXHH@Z (private: void * __thiscall NsCChart::CChart::GetAxis(int,int))
                  ?GetAxisSize@CChart@NsCChart@@QAE?AUtagSIZE@@HH@Z (public: struct tagSIZE __thiscall NsCChart::CChart::GetAxisSize(int,int))
                  ?GetAxisSize@Classless@@YA?AUtagSIZE@@HH@Z (struct tagSIZE __cdecl Classless::GetAxisSize(int,int))
                  ?GetBkgndColor@CChart@NsCChart@@QAEKH@Z (public: unsigned long __thiscall NsCChart::CChart::GetBkgndColor(int))
                  ?GetBkgndColor@CChart@NsCChart@@QAEKXZ (public: unsigned long __thiscall NsCChart::CChart::GetBkgndColor(void))
                  ?GetBkgndColor@Classless@@YAKH@Z (unsigned long __cdecl Classless::GetBkgndColor(int))
                  ?GetBkgndColor@Classless@@YAKXZ (unsigned long __cdecl Classless::GetBkgndColor(void))
                  ?GetChart@CChartWnd@NsCChart@@QAEPAVCChart@2@H@Z (public: class NsCChart::CChart * __thiscall NsCChart::CChartWnd::GetChart(int))
                  ?GetChart@NsCChart@@YAPAVCChart@1@PAUHWND__@@@Z (class NsCChart::CChart * __cdecl NsCChart::GetChart(struct HWND__ *))
                  ?GetChartCount@CChartWnd@NsCChart@@QAEHXZ (public: int __thiscall NsCChart::CChartWnd::GetChartCount(void))
                  ?GetChartCount@Classless@@YAHXZ (int __cdecl Classless::GetChartCount(void))
                  ?GetChartID@CChartWnd@NsCChart@@QAEHH@Z (public: int __thiscall NsCChart::CChartWnd::GetChartID(int))
                  ?GetChartID@Classless@@YAHH@Z (int __cdecl Classless::GetChartID(int))
                  ?GetChartIndex@CChartWnd@NsCChart@@QAEHH@Z (public: int __thiscall NsCChart::CChartWnd::GetChartIndex(int))
                  ?GetChartIndex@Classless@@YAHH@Z (int __cdecl Classless::GetChartIndex(int))
                  ?GetChartType@CChartWnd@NsCChart@@QAEHH@Z (public: int __thiscall NsCChart::CChartWnd::GetChartType(int))
                  ?GetChartType@Classless@@YAHH@Z (int __cdecl Classless::GetChartType(int))
                  ?GetConfineRect@CChart@NsCChart@@QAE?AUtagRECT@@XZ (public: struct tagRECT __thiscall NsCChart::CChart::GetConfineRect(void))
                  ?GetConfineRect@Classless@@YA?AUtagRECT@@XZ (struct tagRECT __cdecl Classless::GetConfineRect(void))
                  ?GetContourInitSteps@CChart@NsCChart@@QAEHXZ (public: int __thiscall NsCChart::CChart::GetContourInitSteps(void))
                  ?GetContourInitSteps@Classless@@YAHXZ (int __cdecl Classless::GetContourInitSteps(void))
                  ?GetCursorColor@CChart@NsCChart@@QAEKH@Z (public: unsigned long __thiscall NsCChart::CChart::GetCursorColor(int))
                  ?GetCursorColor@Classless@@YAKH@Z (unsigned long __cdecl Classless::GetCursorColor(int))
                  ?GetCursorSize@CChart@NsCChart@@QAEHH@Z (public: int __thiscall NsCChart::CChart::GetCursorSize(int))
                  ?GetCursorSize@Classless@@YAHH@Z (int __cdecl Classless::GetCursorSize(int))
                  ?GetCursorStyle@CChart@NsCChart@@QAEHH@Z (public: int __thiscall NsCChart::CChart::GetCursorStyle(int))
                  ?GetCursorStyle@Classless@@YAHH@Z (int __cdecl Classless::GetCursorStyle(int))
                  ?GetCursorX@CChart@NsCChart@@QAENH@Z (public: double __thiscall NsCChart::CChart::GetCursorX(int))
                  ?GetCursorX@Classless@@YANH@Z (double __cdecl Classless::GetCursorX(int))
                  ?GetCursorY@CChart@NsCChart@@QAENH@Z (public: double __thiscall NsCChart::CChart::GetCursorY(int))
                  ?GetCursorY@Classless@@YANH@Z (double __cdecl Classless::GetCursorY(int))
                  ?GetDataColor2@CChart@NsCChart@@QAEKHH@Z (public: unsigned long __thiscall NsCChart::CChart::GetDataColor2(int,int))
                  ?GetDataColor2@Classless@@YAKHH@Z (unsigned long __cdecl Classless::GetDataColor2(int,int))
                  ?GetDataColor@CChart@NsCChart@@QAEKHH@Z (public: unsigned long __thiscall NsCChart::CChart::GetDataColor(int,int))
                  ?GetDataColor@Classless@@YAKHH@Z (unsigned long __cdecl Classless::GetDataColor(int,int))
                  ?GetDataFlag@CChart@NsCChart@@QAE_NHH@Z (public: bool __thiscall NsCChart::CChart::GetDataFlag(int,int))
                  ?GetDataFlag@Classless@@YA_NHH@Z (bool __cdecl Classless::GetDataFlag(int,int))
                  ?GetDataID@CChart@NsCChart@@QAEHHH@Z (public: int __thiscall NsCChart::CChart::GetDataID(int,int))
                  ?GetDataID@Classless@@YAHHH@Z (int __cdecl Classless::GetDataID(int,int))
                  ?GetDataLineSize@CChart@NsCChart@@QAEHHH@Z (public: int __thiscall NsCChart::CChart::GetDataLineSize(int,int))
                  ?GetDataLineSize@Classless@@YAHHH@Z (int __cdecl Classless::GetDataLineSize(int,int))
                  ?GetDataLineStyle@CChart@NsCChart@@QAEHHH@Z (public: int __thiscall NsCChart::CChart::GetDataLineStyle(int,int))
                  ?GetDataLineStyle@Classless@@YAHHH@Z (int __cdecl Classless::GetDataLineStyle(int,int))
                  ?GetDataOffsetX@CChart@NsCChart@@QAENHH@Z (public: double __thiscall NsCChart::CChart::GetDataOffsetX(int,int))
                  ?GetDataOffsetX@Classless@@YANHH@Z (double __cdecl Classless::GetDataOffsetX(int,int))
                  ?GetDataOffsetY@CChart@NsCChart@@QAENHH@Z (public: double __thiscall NsCChart::CChart::GetDataOffsetY(int,int))
                  ?GetDataOffsetY@Classless@@YANHH@Z (double __cdecl Classless::GetDataOffsetY(int,int))
                  ?GetDataPoint@CChart@NsCChart@@QAE_NQANHHH@Z (public: bool __thiscall NsCChart::CChart::GetDataPoint(double * const,int,int,int))
                  ?GetDataPoint@Classless@@YA_NQANHHH@Z (bool __cdecl Classless::GetDataPoint(double * const,int,int,int))
                  ?GetDataPointX@CChart@NsCChart@@QAENHHH@Z (public: double __thiscall NsCChart::CChart::GetDataPointX(int,int,int))
                  ?GetDataPointX@Classless@@YANHHH@Z (double __cdecl Classless::GetDataPointX(int,int,int))
                  ?GetDataPointY@CChart@NsCChart@@QAENHHH@Z (public: double __thiscall NsCChart::CChart::GetDataPointY(int,int,int))
                  ?GetDataPointY@Classless@@YANHHH@Z (double __cdecl Classless::GetDataPointY(int,int,int))
                  ?GetDataPointsCount@CChart@NsCChart@@QAEHHH@Z (public: int __thiscall NsCChart::CChart::GetDataPointsCount(int,int))
                  ?GetDataPointsCount@Classless@@YAHHH@Z (int __cdecl Classless::GetDataPointsCount(int,int))
                  ?GetDataTitle@CChart@NsCChart@@QAEPB_WHH@Z (public: wchar_t const * __thiscall NsCChart::CChart::GetDataTitle(int,int))
                  ?GetDataTitle@Classless@@YAPB_WHH@Z (wchar_t const * __cdecl Classless::GetDataTitle(int,int))
                  ?GetDescriptionByMousePos@CChart@NsCChart@@QAEPA_WPAUHDC__@@UtagPOINT@@@Z (public: wchar_t * __thiscall NsCChart::CChart::GetDescriptionByMousePos(struct HDC__ *,struct tagPOINT))
                  ?GetDescriptionByMousePos@Classless@@YAPA_WPAUHDC__@@UtagPOINT@@@Z (wchar_t * __cdecl Classless::GetDescriptionByMousePos(struct HDC__ *,struct tagPOINT))
                  ?GetFieldFcn@CChart@NsCChart@@QAEP6ANNN@ZXZ (public: double (__cdecl*__thiscall NsCChart::CChart::GetFieldFcn(void))(double,double))
                  ?GetFieldFcn@Classless@@YAP6ANNN@ZXZ (double (__cdecl*__cdecl Classless::GetFieldFcn(void))(double,double))
                  ?GetGridLine@CChart@NsCChart@@QAE_NAA_N000@Z (public: bool __thiscall NsCChart::CChart::GetGridLine(bool &,bool &,bool &,bool &))
                  ?GetGridLine@CChart@NsCChart@@QAE_NAA_N000H@Z (public: bool __thiscall NsCChart::CChart::GetGridLine(bool &,bool &,bool &,bool &,int))
                  ?GetGridLine@Classless@@YA_NAA_N000@Z (bool __cdecl Classless::GetGridLine(bool &,bool &,bool &,bool &))
                  ?GetGridLine@Classless@@YA_NAA_N000H@Z (bool __cdecl Classless::GetGridLine(bool &,bool &,bool &,bool &,int))
                  ?GetHSelLower@CChart@NsCChart@@QAENH@Z (public: double __thiscall NsCChart::CChart::GetHSelLower(int))
                  ?GetHSelLower@Classless@@YANH@Z (double __cdecl Classless::GetHSelLower(int))
                  ?GetHSelUpper@CChart@NsCChart@@QAENH@Z (public: double __thiscall NsCChart::CChart::GetHSelUpper(int))
                  ?GetHSelUpper@Classless@@YANH@Z (double __cdecl Classless::GetHSelUpper(int))
                  ?GetHSelWidth@CChart@NsCChart@@QAENH@Z (public: double __thiscall NsCChart::CChart::GetHSelWidth(int))
                  ?GetHSelWidth@Classless@@YANH@Z (double __cdecl Classless::GetHSelWidth(int))
                  ?GetIndex@CChart@NsCChart@@QAEHHH@Z (public: int __thiscall NsCChart::CChart::GetIndex(int,int))
                  ?GetIndex@Classless@@YAHHH@Z (int __cdecl Classless::GetIndex(int,int))
                  ?GetIndexOfLighted@CChart@NsCChart@@QAEHXZ (public: int __thiscall NsCChart::CChart::GetIndexOfLighted(void))
                  ?GetIndexOfLighted@Classless@@YAHXZ (int __cdecl Classless::GetIndexOfLighted(void))
                  ?GetIndexOfSelected@CChart@NsCChart@@QAEHXZ (public: int __thiscall NsCChart::CChart::GetIndexOfSelected(void))
                  ?GetIndexOfSelected@Classless@@YAHXZ (int __cdecl Classless::GetIndexOfSelected(void))
                  ?GetIndexToHoldCursor@CChart@NsCChart@@QAEHH@Z (public: int __thiscall NsCChart::CChart::GetIndexToHoldCursor(int))
                  ?GetIndexToHoldCursor@Classless@@YAHH@Z (int __cdecl Classless::GetIndexToHoldCursor(int))
                  ?GetLastClientRect@CChart@NsCChart@@QAE?AUtagRECT@@H@Z (public: struct tagRECT __thiscall NsCChart::CChart::GetLastClientRect(int))
                  ?GetLastClientRect@CChart@NsCChart@@QAE?AUtagRECT@@XZ (public: struct tagRECT __thiscall NsCChart::CChart::GetLastClientRect(void))
                  ?GetLastClientRect@Classless@@YA?AUtagRECT@@H@Z (struct tagRECT __cdecl Classless::GetLastClientRect(int))
                  ?GetLastClientRect@Classless@@YA?AUtagRECT@@XZ (struct tagRECT __cdecl Classless::GetLastClientRect(void))
                  ?GetLastDataRange@CChart@NsCChart@@QAEXQAN0H@Z (public: void __thiscall NsCChart::CChart::GetLastDataRange(double * const,double * const,int))
                  ?GetLastDataRange@Classless@@YAXQAN0H@Z (void __cdecl Classless::GetLastDataRange(double * const,double * const,int))
                  ?GetLastPlotRange@CChart@NsCChart@@QAEXQAN0H@Z (public: void __thiscall NsCChart::CChart::GetLastPlotRange(double * const,double * const,int))
                  ?GetLastPlotRange@Classless@@YAXQAN0H@Z (void __cdecl Classless::GetLastPlotRange(double * const,double * const,int))
                  ?GetLastPlotRect@CChart@NsCChart@@QAE?AUtagRECT@@H@Z (public: struct tagRECT __thiscall NsCChart::CChart::GetLastPlotRect(int))
                  ?GetLastPlotRect@CChart@NsCChart@@QAE?AUtagRECT@@XZ (public: struct tagRECT __thiscall NsCChart::CChart::GetLastPlotRect(void))
                  ?GetLastPlotRect@Classless@@YA?AUtagRECT@@H@Z (struct tagRECT __cdecl Classless::GetLastPlotRect(int))
                  ?GetLastPlotRect@Classless@@YA?AUtagRECT@@XZ (struct tagRECT __cdecl Classless::GetLastPlotRect(void))
                  ?GetMaxDataPointsCount@CChart@NsCChart@@QAEHH@Z (public: int __thiscall NsCChart::CChart::GetMaxDataPointsCount(int))
                  ?GetMaxDataPointsCount@Classless@@YAHH@Z (int __cdecl Classless::GetMaxDataPointsCount(int))
                  ?GetMultiColorInputType@CChart@NsCChart@@QAEHHH@Z (public: int __thiscall NsCChart::CChart::GetMultiColorInputType(int,int))
                  ?GetMultiColorInputType@Classless@@YAHHH@Z (int __cdecl Classless::GetMultiColorInputType(int,int))
                  ?GetPara@CChart@NsCChart@@QAEPAUstChartPara@12@XZ (public: struct NsCChart::CChart::stChartPara * __thiscall NsCChart::CChart::GetPara(void))
                  ?GetPara@CChartWnd@NsCChart@@QAEPAUstChartWndPara@12@XZ (public: struct NsCChart::CChartWnd::stChartWndPara * __thiscall NsCChart::CChartWnd::GetPara(void))
                  ?GetParaSize@CChart@NsCChart@@SAHXZ (public: static int __cdecl NsCChart::CChart::GetParaSize(void))
                  ?GetParaSize@CChartWnd@NsCChart@@SAHXZ (public: static int __cdecl NsCChart::CChartWnd::GetParaSize(void))
                  ?GetPieTitleFont@CChart@NsCChart@@QAEAAUtagLOGFONTW@@XZ (public: struct tagLOGFONTW & __thiscall NsCChart::CChart::GetPieTitleFont(void))
                  ?GetPieTitleFont@Classless@@YAAAUtagLOGFONTW@@XZ (struct tagLOGFONTW & __cdecl Classless::GetPieTitleFont(void))
                  ?GetPlot@CChart@NsCChart@@QAEPAXXZ (public: void * __thiscall NsCChart::CChart::GetPlot(void))
                  ?GetPlot@Classless@@YAPAXXZ (void * __cdecl Classless::GetPlot(void))
                  ?GetPlotDataCount@CChart@NsCChart@@QAEHH@Z (public: int __thiscall NsCChart::CChart::GetPlotDataCount(int))
                  ?GetPlotDataCount@Classless@@YAHH@Z (int __cdecl Classless::GetPlotDataCount(int))
                  ?GetPlotID@CChart@NsCChart@@QAEHXZ (public: int __thiscall NsCChart::CChart::GetPlotID(void))
                  ?GetPlotIndexByMousePos@CChart@NsCChart@@QAEHUtagPOINT@@@Z (public: int __thiscall NsCChart::CChart::GetPlotIndexByMousePos(struct tagPOINT))
                  ?GetPlotIndexByMousePos@Classless@@YAHUtagPOINT@@@Z (int __cdecl Classless::GetPlotIndexByMousePos(struct tagPOINT))
                  ?GetSubPlotCount@CChart@NsCChart@@QAEHXZ (public: int __thiscall NsCChart::CChart::GetSubPlotCount(void))
                  ?GetSubPlotCount@Classless@@YAHXZ (int __cdecl Classless::GetSubPlotCount(void))
                  ?GetSubTitle@CChart@NsCChart@@QAEPA_WH@Z (public: wchar_t * __thiscall NsCChart::CChart::GetSubTitle(int))
                  ?GetSubTitle@CChart@NsCChart@@QAEPA_WXZ (public: wchar_t * __thiscall NsCChart::CChart::GetSubTitle(void))
                  ?GetSubTitle@Classless@@YAPA_WH@Z (wchar_t * __cdecl Classless::GetSubTitle(int))
                  ?GetSubTitle@Classless@@YAPA_WXZ (wchar_t * __cdecl Classless::GetSubTitle(void))
                  ?GetSubTitleColor@CChart@NsCChart@@QAEKH@Z (public: unsigned long __thiscall NsCChart::CChart::GetSubTitleColor(int))
                  ?GetSubTitleColor@CChart@NsCChart@@QAEKXZ (public: unsigned long __thiscall NsCChart::CChart::GetSubTitleColor(void))
                  ?GetSubTitleColor@Classless@@YAKH@Z (unsigned long __cdecl Classless::GetSubTitleColor(int))
                  ?GetSubTitleColor@Classless@@YAKXZ (unsigned long __cdecl Classless::GetSubTitleColor(void))
                  ?GetSubTitleFont@CChart@NsCChart@@QAE?AUtagLOGFONTW@@H@Z (public: struct tagLOGFONTW __thiscall NsCChart::CChart::GetSubTitleFont(int))
                  ?GetSubTitleFont@CChart@NsCChart@@QAE?AUtagLOGFONTW@@XZ (public: struct tagLOGFONTW __thiscall NsCChart::CChart::GetSubTitleFont(void))
                  ?GetSubTitleFont@Classless@@YA?AUtagLOGFONTW@@H@Z (struct tagLOGFONTW __cdecl Classless::GetSubTitleFont(int))
                  ?GetSubTitleFont@Classless@@YA?AUtagLOGFONTW@@XZ (struct tagLOGFONTW __cdecl Classless::GetSubTitleFont(void))
                  ?GetSubTitlePosition@CChart@NsCChart@@QAEHH@Z (public: int __thiscall NsCChart::CChart::GetSubTitlePosition(int))
                  ?GetSubTitlePosition@CChart@NsCChart@@QAEHXZ (public: int __thiscall NsCChart::CChart::GetSubTitlePosition(void))
                  ?GetSubTitlePosition@Classless@@YAHH@Z (int __cdecl Classless::GetSubTitlePosition(int))
                  ?GetSubTitlePosition@Classless@@YAHXZ (int __cdecl Classless::GetSubTitlePosition(void))
                  ?GetTitle@CChart@NsCChart@@QAEPA_WH@Z (public: wchar_t * __thiscall NsCChart::CChart::GetTitle(int))
                  ?GetTitle@CChart@NsCChart@@QAEPA_WXZ (public: wchar_t * __thiscall NsCChart::CChart::GetTitle(void))
                  ?GetTitle@Classless@@YAPA_WH@Z (wchar_t * __cdecl Classless::GetTitle(int))
                  ?GetTitle@Classless@@YAPA_WXZ (wchar_t * __cdecl Classless::GetTitle(void))
                  ?GetTitleColor@CChart@NsCChart@@QAEKH@Z (public: unsigned long __thiscall NsCChart::CChart::GetTitleColor(int))
                  ?GetTitleColor@CChart@NsCChart@@QAEKXZ (public: unsigned long __thiscall NsCChart::CChart::GetTitleColor(void))
                  ?GetTitleColor@Classless@@YAKH@Z (unsigned long __cdecl Classless::GetTitleColor(int))
                  ?GetTitleColor@Classless@@YAKXZ (unsigned long __cdecl Classless::GetTitleColor(void))
                  ?GetTitleFont@CChart@NsCChart@@QAE?AUtagLOGFONTW@@H@Z (public: struct tagLOGFONTW __thiscall NsCChart::CChart::GetTitleFont(int))
                  ?GetTitleFont@CChart@NsCChart@@QAE?AUtagLOGFONTW@@XZ (public: struct tagLOGFONTW __thiscall NsCChart::CChart::GetTitleFont(void))
                  ?GetTitleFont@Classless@@YA?AUtagLOGFONTW@@H@Z (struct tagLOGFONTW __cdecl Classless::GetTitleFont(int))
                  ?GetTitleFont@Classless@@YA?AUtagLOGFONTW@@XZ (struct tagLOGFONTW __cdecl Classless::GetTitleFont(void))
                  ?GetTitlePosition@CChart@NsCChart@@QAEHH@Z (public: int __thiscall NsCChart::CChart::GetTitlePosition(int))
                  ?GetTitlePosition@CChart@NsCChart@@QAEHXZ (public: int __thiscall NsCChart::CChart::GetTitlePosition(void))
                  ?GetTitlePosition@Classless@@YAHH@Z (int __cdecl Classless::GetTitlePosition(int))
                  ?GetTitlePosition@Classless@@YAHXZ (int __cdecl Classless::GetTitlePosition(void))
                  ?GetTop@CChart@NsCChart@@QAEHXZ (public: int __thiscall NsCChart::CChart::GetTop(void))
                  ?GetTop@Classless@@YAHXZ (int __cdecl Classless::GetTop(void))
                  ?GetType@CChart@NsCChart@@QAEHXZ (public: int __thiscall NsCChart::CChart::GetType(void))
                  ?GetType@Classless@@YAHXZ (int __cdecl Classless::GetType(void))
                  ?GetTypeCodeFromAbbr@NsCChart@@YAHPB_W@Z (int __cdecl NsCChart::GetTypeCodeFromAbbr(wchar_t const *))
                  ?GetUserFlag@CChart@NsCChart@@QAE_NXZ (public: bool __thiscall NsCChart::CChart::GetUserFlag(void))
                  ?GetUserFlag@Classless@@YA_NXZ (bool __cdecl Classless::GetUserFlag(void))
                  ?GetUserPointer@CChart@NsCChart@@QAEPAXXZ (public: void * __thiscall NsCChart::CChart::GetUserPointer(void))
                  ?GetUserPointer@Classless@@YAPAXXZ (void * __cdecl Classless::GetUserPointer(void))
                  ?GetVSelLower@CChart@NsCChart@@QAENH@Z (public: double __thiscall NsCChart::CChart::GetVSelLower(int))
                  ?GetVSelLower@Classless@@YANH@Z (double __cdecl Classless::GetVSelLower(int))
                  ?GetVSelUpper@CChart@NsCChart@@QAENH@Z (public: double __thiscall NsCChart::CChart::GetVSelUpper(int))
                  ?GetVSelUpper@Classless@@YANH@Z (double __cdecl Classless::GetVSelUpper(int))
                  ?GetVSelWidth@CChart@NsCChart@@QAENH@Z (public: double __thiscall NsCChart::CChart::GetVSelWidth(int))
                  ?GetVSelWidth@Classless@@YANH@Z (double __cdecl Classless::GetVSelWidth(int))
                  ?GetWnd@CChart@NsCChart@@QAEPAUHWND__@@XZ (public: struct HWND__ * __thiscall NsCChart::CChart::GetWnd(void))
                  ?GetZoomedRect@CChart@NsCChart@@IAE?AUtagRECT@@U3@@Z (protected: struct tagRECT __thiscall NsCChart::CChart::GetZoomedRect(struct tagRECT))
                  ?InsertDataPointColor@CChart@NsCChart@@QAEXKHHH@Z (public: void __thiscall NsCChart::CChart::InsertDataPointColor(unsigned long,int,int,int))
                  ?InsertDataPointColor@Classless@@YAXKHHH@Z (void __cdecl Classless::InsertDataPointColor(unsigned long,int,int,int))
                  ?InsertPoint2D@CChart@NsCChart@@QAEHNNHHH@Z (public: int __thiscall NsCChart::CChart::InsertPoint2D(double,double,int,int,int))
                  ?InsertPoint2D@Classless@@YAHNNHHH@Z (int __cdecl Classless::InsertPoint2D(double,double,int,int,int))
                  ?Interactive@CChart@NsCChart@@QAEXPAUHWND__@@IIJ@Z (public: void __thiscall NsCChart::CChart::Interactive(struct HWND__ *,unsigned int,unsigned int,long))
                  ?Interactive@Classless@@YAXPAUHWND__@@IIJ@Z (void __cdecl Classless::Interactive(struct HWND__ *,unsigned int,unsigned int,long))
                  ?Invalidate@CChart@NsCChart@@UAEXH@Z (public: virtual void __thiscall NsCChart::CChart::Invalidate(int))
                  ?Invalidate@Classless@@YAXH@Z (void __cdecl Classless::Invalidate(int))
                  ?IsAutoRedraw@CChart@NsCChart@@QAE_NXZ (public: bool __thiscall NsCChart::CChart::IsAutoRedraw(void))
                  ?IsAutoRedraw@Classless@@YA_NXZ (bool __cdecl Classless::IsAutoRedraw(void))
                  ?IsAxisShow@CChart@NsCChart@@QAE_NH@Z (public: bool __thiscall NsCChart::CChart::IsAxisShow(int))
                  ?IsAxisShow@CChart@NsCChart@@QAE_NHH@Z (public: bool __thiscall NsCChart::CChart::IsAxisShow(int,int))
                  ?IsAxisShow@Classless@@YA_NH@Z (bool __cdecl Classless::IsAxisShow(int))
                  ?IsAxisShow@Classless@@YA_NHH@Z (bool __cdecl Classless::IsAxisShow(int,int))
                  ?IsBiColorMode@CChart@NsCChart@@QAE_NHH@Z (public: bool __thiscall NsCChart::CChart::IsBiColorMode(int,int))
                  ?IsBiColorMode@Classless@@YA_NHH@Z (bool __cdecl Classless::IsBiColorMode(int,int))
                  ?IsColorPtByPt@CChart@NsCChart@@QAE_NHH@Z (public: bool __thiscall NsCChart::CChart::IsColorPtByPt(int,int))
                  ?IsColorPtByPt@Classless@@YA_NHH@Z (bool __cdecl Classless::IsColorPtByPt(int,int))
                  ?IsCreated@Classless@@YA_NXZ (bool __cdecl Classless::IsCreated(void))
                  ?IsDataVisible@CChart@NsCChart@@QAE_NHH@Z (public: bool __thiscall NsCChart::CChart::IsDataVisible(int,int))
                  ?IsDataVisible@Classless@@YA_NHH@Z (bool __cdecl Classless::IsDataVisible(int,int))
                  ?IsDoubleBuffer@CChart@NsCChart@@QAE_NXZ (public: bool __thiscall NsCChart::CChart::IsDoubleBuffer(void))
                  ?IsDoubleBuffer@Classless@@YA_NXZ (bool __cdecl Classless::IsDoubleBuffer(void))
                  ?IsEdgeShow@CChart@NsCChart@@QAE_NXZ (public: bool __thiscall NsCChart::CChart::IsEdgeShow(void))
                  ?IsEmpty@CChart@NsCChart@@QAE_NXZ (public: bool __thiscall NsCChart::CChart::IsEmpty(void))
                  ?IsEmpty@Classless@@YA_NXZ (bool __cdecl Classless::IsEmpty(void))
                  ?IsEnableDataDrag@CChart@NsCChart@@QAE_NXZ (public: bool __thiscall NsCChart::CChart::IsEnableDataDrag(void))
                  ?IsEnableDataDrag@Classless@@YA_NXZ (bool __cdecl Classless::IsEnableDataDrag(void))
                  ?IsEnableToolTip@CChart@NsCChart@@SA_NXZ (public: static bool __cdecl NsCChart::CChart::IsEnableToolTip(void))
                  ?IsEnableToolTip@Classless@@YA_NXZ (bool __cdecl Classless::IsEnableToolTip(void))
                  ?IsEnableZoneDrag@CChart@NsCChart@@QAE_NXZ (public: bool __thiscall NsCChart::CChart::IsEnableZoneDrag(void))
                  ?IsEnableZoneDrag@Classless@@YA_NXZ (bool __cdecl Classless::IsEnableZoneDrag(void))
                  ?IsGradientBkgnd@CChart@NsCChart@@QAE_NXZ (public: bool __thiscall NsCChart::CChart::IsGradientBkgnd(void))
                  ?IsGradientBkgnd@Classless@@YA_NXZ (bool __cdecl Classless::IsGradientBkgnd(void))
                  ?IsHoldCursorToCurve@CChart@NsCChart@@QAE_NH@Z (public: bool __thiscall NsCChart::CChart::IsHoldCursorToCurve(int))
                  ?IsHoldCursorToCurve@Classless@@YA_NH@Z (bool __cdecl Classless::IsHoldCursorToCurve(int))
                  ?IsHoldCursorToMouse@CChart@NsCChart@@QAE_NH@Z (public: bool __thiscall NsCChart::CChart::IsHoldCursorToMouse(int))
                  ?IsHoldCursorToMouse@Classless@@YA_NH@Z (bool __cdecl Classless::IsHoldCursorToMouse(int))
                  ?IsLegendShow@CChart@NsCChart@@QAE_NH@Z (public: bool __thiscall NsCChart::CChart::IsLegendShow(int))
                  ?IsLegendShow@Classless@@YA_NH@Z (bool __cdecl Classless::IsLegendShow(int))
                  ?IsMultiColorMode@CChart@NsCChart@@QAE_NHH@Z (public: bool __thiscall NsCChart::CChart::IsMultiColorMode(int,int))
                  ?IsMultiColorMode@Classless@@YA_NHH@Z (bool __cdecl Classless::IsMultiColorMode(int,int))
                  ?IsOscilloMode@CChart@NsCChart@@QAE_NH@Z (public: bool __thiscall NsCChart::CChart::IsOscilloMode(int))
                  ?IsOscilloMode@Classless@@YA_NH@Z (bool __cdecl Classless::IsOscilloMode(int))
                  ?IsReact@CChart@NsCChart@@QAE_NXZ (public: bool __thiscall NsCChart::CChart::IsReact(void))
                  ?IsReact@Classless@@YA_NXZ (bool __cdecl Classless::IsReact(void))
                  ?IsRectConfined@CChart@NsCChart@@QAE_NXZ (public: bool __thiscall NsCChart::CChart::IsRectConfined(void))
                  ?IsRectConfined@Classless@@YA_NXZ (bool __cdecl Classless::IsRectConfined(void))
                  ?IsShowTrigArrow@CChart@NsCChart@@QAE_NH@Z (public: bool __thiscall NsCChart::CChart::IsShowTrigArrow(int))
                  ?IsShowTrigArrow@Classless@@YA_NH@Z (bool __cdecl Classless::IsShowTrigArrow(int))
                  ?IsShowZeroArrow@CChart@NsCChart@@QAE_NH@Z (public: bool __thiscall NsCChart::CChart::IsShowZeroArrow(int))
                  ?IsShowZeroArrow@Classless@@YA_NH@Z (bool __cdecl Classless::IsShowZeroArrow(int))
                  ?IsStartOscilloScope@CChart@NsCChart@@QAE_NH@Z (public: bool __thiscall NsCChart::CChart::IsStartOscilloScope(int))
                  ?IsStartOscilloScope@Classless@@YA_NH@Z (bool __cdecl Classless::IsStartOscilloScope(int))
                  ?IsSubTitleShow@CChart@NsCChart@@QAE_NH@Z (public: bool __thiscall NsCChart::CChart::IsSubTitleShow(int))
                  ?IsSubTitleShow@CChart@NsCChart@@QAE_NXZ (public: bool __thiscall NsCChart::CChart::IsSubTitleShow(void))
                  ?IsSubTitleShow@Classless@@YA_NH@Z (bool __cdecl Classless::IsSubTitleShow(int))
                  ?IsSubTitleShow@Classless@@YA_NXZ (bool __cdecl Classless::IsSubTitleShow(void))
                  ?IsTitleShow@CChart@NsCChart@@QAE_NH@Z (public: bool __thiscall NsCChart::CChart::IsTitleShow(int))
                  ?IsTitleShow@CChart@NsCChart@@QAE_NXZ (public: bool __thiscall NsCChart::CChart::IsTitleShow(void))
                  ?IsTitleShow@Classless@@YA_NH@Z (bool __cdecl Classless::IsTitleShow(int))
                  ?IsTitleShow@Classless@@YA_NXZ (bool __cdecl Classless::IsTitleShow(void))
                  ?IsValid@NsCChart@@YA_NPAVCChart@1@@Z (bool __cdecl NsCChart::IsValid(class NsCChart::CChart *))
                  ?IsValid@NsCChart@@YA_NPAVCChartWnd@1@@Z (bool __cdecl NsCChart::IsValid(class NsCChart::CChartWnd *))
                  ?MoveData@CChart@NsCChart@@QAE_NNNHH@Z (public: bool __thiscall NsCChart::CChart::MoveData(double,double,int,int))
                  ?MoveData@Classless@@YA_NNNHH@Z (bool __cdecl Classless::MoveData(double,double,int,int))
                  ?MyLockCode@NsCChart@@YAXXZ (void __cdecl NsCChart::MyLockCode(void))
                  ?MyUnlockCode@NsCChart@@YAXXZ (void __cdecl NsCChart::MyUnlockCode(void))
                  ?OnContextMenu@CChart@NsCChart@@UAE_NPAUHMENU__@@PAUHWND__@@UtagPOINT@@@Z (public: virtual bool __thiscall NsCChart::CChart::OnContextMenu(struct HMENU__ *,struct HWND__ *,struct tagPOINT))
                  ?OnContextMenu@Classless@@YA_NPAUHMENU__@@PAUHWND__@@UtagPOINT@@@Z (bool __cdecl Classless::OnContextMenu(struct HMENU__ *,struct HWND__ *,struct tagPOINT))
                  ?OnContextMenuR@CChart@NsCChart@@QAEXPAUHMENU__@@PAUHWND__@@UtagPOINT@@@Z (public: void __thiscall NsCChart::CChart::OnContextMenuR(struct HMENU__ *,struct HWND__ *,struct tagPOINT))
                  ?OnContextMenuR@Classless@@YAXPAUHMENU__@@PAUHWND__@@UtagPOINT@@@Z (void __cdecl Classless::OnContextMenuR(struct HMENU__ *,struct HWND__ *,struct tagPOINT))
                  ?OnDraw@CChart@NsCChart@@UAEXPAUHDC__@@@Z (public: virtual void __thiscall NsCChart::CChart::OnDraw(struct HDC__ *))
                  ?OnDraw@CChart@NsCChart@@UAEXPAUHDC__@@UtagRECT@@@Z (public: virtual void __thiscall NsCChart::CChart::OnDraw(struct HDC__ *,struct tagRECT))
                  ?OnDraw@CChart@NsCChart@@UAEXPAUHWND__@@@Z (public: virtual void __thiscall NsCChart::CChart::OnDraw(struct HWND__ *))
                  ?OnDraw@CChart@NsCChart@@UAEXPAUHWND__@@UtagRECT@@@Z (public: virtual void __thiscall NsCChart::CChart::OnDraw(struct HWND__ *,struct tagRECT))
                  ?OnDraw@CChart@NsCChart@@UAEXXZ (public: virtual void __thiscall NsCChart::CChart::OnDraw(void))
                  ?OnDraw@Classless@@YAXPAUHDC__@@@Z (void __cdecl Classless::OnDraw(struct HDC__ *))
                  ?OnDraw@Classless@@YAXPAUHDC__@@UtagRECT@@@Z (void __cdecl Classless::OnDraw(struct HDC__ *,struct tagRECT))
                  ?OnDraw@Classless@@YAXPAUHWND__@@@Z (void __cdecl Classless::OnDraw(struct HWND__ *))
                  ?OnDraw@Classless@@YAXPAUHWND__@@UtagRECT@@@Z (void __cdecl Classless::OnDraw(struct HWND__ *,struct tagRECT))
                  ?OnDraw@Classless@@YAXXZ (void __cdecl Classless::OnDraw(void))
                  ?OnEvent@CChart@NsCChart@@UAE_NPAUHWND__@@IIJ@Z (public: virtual bool __thiscall NsCChart::CChart::OnEvent(struct HWND__ *,unsigned int,unsigned int,long))
                  ?OnEvent@Classless@@YA_NPAUHWND__@@IIJ@Z (bool __cdecl Classless::OnEvent(struct HWND__ *,unsigned int,unsigned int,long))
                  ?OnKeyDown@CChart@NsCChart@@UAE_NPAUHWND__@@I@Z (public: virtual bool __thiscall NsCChart::CChart::OnKeyDown(struct HWND__ *,unsigned int))
                  ?OnKeyDown@Classless@@YA_NPAUHWND__@@I@Z (bool __cdecl Classless::OnKeyDown(struct HWND__ *,unsigned int))
                  ?OnKeyDownR@CChart@NsCChart@@QAEXPAUHWND__@@I@Z (public: void __thiscall NsCChart::CChart::OnKeyDownR(struct HWND__ *,unsigned int))
                  ?OnKeyDownR@Classless@@YAXPAUHWND__@@I@Z (void __cdecl Classless::OnKeyDownR(struct HWND__ *,unsigned int))
                  ?OnLButtonDblClk@CChart@NsCChart@@UAE_NPAUHWND__@@UtagPOINT@@I@Z (public: virtual bool __thiscall NsCChart::CChart::OnLButtonDblClk(struct HWND__ *,struct tagPOINT,unsigned int))
                  ?OnLButtonDblClk@Classless@@YA_NPAUHWND__@@UtagPOINT@@I@Z (bool __cdecl Classless::OnLButtonDblClk(struct HWND__ *,struct tagPOINT,unsigned int))
                  ?OnLButtonDblClkR@CChart@NsCChart@@QAEXPAUHWND__@@UtagPOINT@@I@Z (public: void __thiscall NsCChart::CChart::OnLButtonDblClkR(struct HWND__ *,struct tagPOINT,unsigned int))
                  ?OnLButtonDblClkR@Classless@@YAXPAUHWND__@@UtagPOINT@@I@Z (void __cdecl Classless::OnLButtonDblClkR(struct HWND__ *,struct tagPOINT,unsigned int))
                  ?OnLButtonDown@CChart@NsCChart@@UAE_NPAUHWND__@@UtagPOINT@@I@Z (public: virtual bool __thiscall NsCChart::CChart::OnLButtonDown(struct HWND__ *,struct tagPOINT,unsigned int))
                  ?OnLButtonDown@Classless@@YA_NPAUHWND__@@UtagPOINT@@I@Z (bool __cdecl Classless::OnLButtonDown(struct HWND__ *,struct tagPOINT,unsigned int))
                  ?OnLButtonDownR@CChart@NsCChart@@QAEXPAUHWND__@@UtagPOINT@@I@Z (public: void __thiscall NsCChart::CChart::OnLButtonDownR(struct HWND__ *,struct tagPOINT,unsigned int))
                  ?OnLButtonDownR@Classless@@YAXPAUHWND__@@UtagPOINT@@I@Z (void __cdecl Classless::OnLButtonDownR(struct HWND__ *,struct tagPOINT,unsigned int))
                  ?OnLButtonUp@CChart@NsCChart@@UAE_NPAUHWND__@@UtagPOINT@@I@Z (public: virtual bool __thiscall NsCChart::CChart::OnLButtonUp(struct HWND__ *,struct tagPOINT,unsigned int))
                  ?OnLButtonUp@Classless@@YA_NPAUHWND__@@UtagPOINT@@I@Z (bool __cdecl Classless::OnLButtonUp(struct HWND__ *,struct tagPOINT,unsigned int))
                  ?OnLButtonUpR@CChart@NsCChart@@QAEXPAUHWND__@@UtagPOINT@@I@Z (public: void __thiscall NsCChart::CChart::OnLButtonUpR(struct HWND__ *,struct tagPOINT,unsigned int))
                  ?OnLButtonUpR@Classless@@YAXPAUHWND__@@UtagPOINT@@I@Z (void __cdecl Classless::OnLButtonUpR(struct HWND__ *,struct tagPOINT,unsigned int))
                  ?OnMouseLeave@CChart@NsCChart@@UAE_NPAUHWND__@@UtagPOINT@@I@Z (public: virtual bool __thiscall NsCChart::CChart::OnMouseLeave(struct HWND__ *,struct tagPOINT,unsigned int))
                  ?OnMouseLeave@Classless@@YA_NPAUHWND__@@UtagPOINT@@I@Z (bool __cdecl Classless::OnMouseLeave(struct HWND__ *,struct tagPOINT,unsigned int))
                  ?OnMouseLeaveR@CChart@NsCChart@@QAEXPAUHWND__@@UtagPOINT@@I@Z (public: void __thiscall NsCChart::CChart::OnMouseLeaveR(struct HWND__ *,struct tagPOINT,unsigned int))
                  ?OnMouseLeaveR@Classless@@YAXPAUHWND__@@UtagPOINT@@I@Z (void __cdecl Classless::OnMouseLeaveR(struct HWND__ *,struct tagPOINT,unsigned int))
                  ?OnMouseMove@CChart@NsCChart@@UAE_NPAUHWND__@@UtagPOINT@@I@Z (public: virtual bool __thiscall NsCChart::CChart::OnMouseMove(struct HWND__ *,struct tagPOINT,unsigned int))
                  ?OnMouseMove@Classless@@YA_NPAUHWND__@@UtagPOINT@@I@Z (bool __cdecl Classless::OnMouseMove(struct HWND__ *,struct tagPOINT,unsigned int))
                  ?OnMouseMoveR@CChart@NsCChart@@QAEXPAUHWND__@@UtagPOINT@@I@Z (public: void __thiscall NsCChart::CChart::OnMouseMoveR(struct HWND__ *,struct tagPOINT,unsigned int))
                  ?OnMouseMoveR@Classless@@YAXPAUHWND__@@UtagPOINT@@I@Z (void __cdecl Classless::OnMouseMoveR(struct HWND__ *,struct tagPOINT,unsigned int))
                  ?OnMouseWheel@CChart@NsCChart@@UAE_NPAUHWND__@@UtagPOINT@@I@Z (public: virtual bool __thiscall NsCChart::CChart::OnMouseWheel(struct HWND__ *,struct tagPOINT,unsigned int))
                  ?OnMouseWheel@Classless@@YA_NPAUHWND__@@UtagPOINT@@I@Z (bool __cdecl Classless::OnMouseWheel(struct HWND__ *,struct tagPOINT,unsigned int))
                  ?OnMouseWheelR@CChart@NsCChart@@QAEXPAUHWND__@@UtagPOINT@@I@Z (public: void __thiscall NsCChart::CChart::OnMouseWheelR(struct HWND__ *,struct tagPOINT,unsigned int))
                  ?OnMouseWheelR@Classless@@YAXPAUHWND__@@UtagPOINT@@I@Z (void __cdecl Classless::OnMouseWheelR(struct HWND__ *,struct tagPOINT,unsigned int))
                  ?PrintImage@CChart@NsCChart@@QAEXPAUHDC__@@_N@Z (public: void __thiscall NsCChart::CChart::PrintImage(struct HDC__ *,bool))
                  ?PrintImage@CChart@NsCChart@@QAEXPAUHWND__@@_N@Z (public: void __thiscall NsCChart::CChart::PrintImage(struct HWND__ *,bool))
                  ?PrintImage@Classless@@YAXPAUHDC__@@_N@Z (void __cdecl Classless::PrintImage(struct HDC__ *,bool))
                  ?PrintImage@Classless@@YAXPAUHWND__@@_N@Z (void __cdecl Classless::PrintImage(struct HWND__ *,bool))
                  ?ReDraw@CChartWnd@NsCChart@@QAEXH@Z (public: void __thiscall NsCChart::CChartWnd::ReDraw(int))
                  ?ReDraw@CChartWnd@NsCChart@@QAEXPAUHWND__@@@Z (public: void __thiscall NsCChart::CChartWnd::ReDraw(struct HWND__ *))
                  ?ReDraw@CChartWnd@NsCChart@@QAEXPAVCChart@2@@Z (public: void __thiscall NsCChart::CChartWnd::ReDraw(class NsCChart::CChart *))
                  ?ReDraw@CChartWnd@NsCChart@@QAEXXZ (public: void __thiscall NsCChart::CChartWnd::ReDraw(void))
                  ?ReDraw@Classless@@YAXH@Z (void __cdecl Classless::ReDraw(int))
                  ?ReDraw@Classless@@YAXPAUHWND__@@@Z (void __cdecl Classless::ReDraw(struct HWND__ *))
                  ?ReDraw@Classless@@YAXXZ (void __cdecl Classless::ReDraw(void))
                  ?ReadJsonConfig@NsCChart@@YA_NPA_WPAVCChart@1@@Z (bool __cdecl NsCChart::ReadJsonConfig(wchar_t *,class NsCChart::CChart *))
                  ?ReadXmlConfig@NsCChart@@YA_NPA_WPAVCChart@1@@Z (bool __cdecl NsCChart::ReadXmlConfig(wchar_t *,class NsCChart::CChart *))
                  ?RegisterChartControl@NsCChart@@YAGPA_W@Z (unsigned short __cdecl NsCChart::RegisterChartControl(wchar_t *))
                  ?RegisterChartControl@NsCChart@@YAGXZ (unsigned short __cdecl NsCChart::RegisterChartControl(void))
                  ?Release@CChart@NsCChart@@IAEXXZ (protected: void __thiscall NsCChart::CChart::Release(void))
                  ?Release@CChartWnd@NsCChart@@IAEXXZ (protected: void __thiscall NsCChart::CChartWnd::Release(void))
                  ?RemoveFirstPoint@CChart@NsCChart@@QAEHHH@Z (public: int __thiscall NsCChart::CChart::RemoveFirstPoint(int,int))
                  ?RemoveFirstPoint@Classless@@YAHHH@Z (int __cdecl Classless::RemoveFirstPoint(int,int))
                  ?RemoveLastPoint@CChart@NsCChart@@QAEHHH@Z (public: int __thiscall NsCChart::CChart::RemoveLastPoint(int,int))
                  ?RemoveLastPoint@Classless@@YAHHH@Z (int __cdecl Classless::RemoveLastPoint(int,int))
                  ?RemoveSinglePoint@CChart@NsCChart@@QAEHHHH@Z (public: int __thiscall NsCChart::CChart::RemoveSinglePoint(int,int,int))
                  ?RemoveSinglePoint@Classless@@YAHHHH@Z (int __cdecl Classless::RemoveSinglePoint(int,int,int))
                  ?ReplaceCurve@CChart@NsCChart@@QAEHHPAN0HH@Z (public: int __thiscall NsCChart::CChart::ReplaceCurve(int,double *,double *,int,int))
                  ?ReplaceCurve@Classless@@YAHHPAN0HH@Z (int __cdecl Classless::ReplaceCurve(int,double *,double *,int,int))
                  ?ReplaceCurveByID@CChart@NsCChart@@QAEHHPAN0HH@Z (public: int __thiscall NsCChart::CChart::ReplaceCurveByID(int,double *,double *,int,int))
                  ?ReplaceCurveByID@Classless@@YAHHPAN0HH@Z (int __cdecl Classless::ReplaceCurveByID(int,double *,double *,int,int))
                  ?ReplaceFirstPoint@CChart@NsCChart@@QAEHNNHH@Z (public: int __thiscall NsCChart::CChart::ReplaceFirstPoint(double,double,int,int))
                  ?ReplaceFirstPoint@Classless@@YAHNNHH@Z (int __cdecl Classless::ReplaceFirstPoint(double,double,int,int))
                  ?ReplaceLastPoint@CChart@NsCChart@@QAEHNNHH@Z (public: int __thiscall NsCChart::CChart::ReplaceLastPoint(double,double,int,int))
                  ?ReplaceLastPoint@Classless@@YAHNNHH@Z (int __cdecl Classless::ReplaceLastPoint(double,double,int,int))
                  ?ResetApperance@CChart@NsCChart@@QAEXXZ (public: void __thiscall NsCChart::CChart::ResetApperance(void))
                  ?ResetApperance@Classless@@YAXXZ (void __cdecl Classless::ResetApperance(void))
                  ?ResetZoomedRanges@CChart@NsCChart@@QAEXXZ (public: void __thiscall NsCChart::CChart::ResetZoomedRanges(void))
                  ?ResetZoomedRanges@Classless@@YAXXZ (void __cdecl Classless::ResetZoomedRanges(void))
                  ?ResizeCurves@CChart@NsCChart@@QAEXHH@Z (public: void __thiscall NsCChart::CChart::ResizeCurves(int,int))
                  ?ResizeCurves@Classless@@YAXHH@Z (void __cdecl Classless::ResizeCurves(int,int))
                  ?ResizePlots@CChart@NsCChart@@QAEXH@Z (public: void __thiscall NsCChart::CChart::ResizePlots(int))
                  ?ResizePlots@CChart@NsCChart@@QAEXHHH@Z (public: void __thiscall NsCChart::CChart::ResizePlots(int,int,int))
                  ?ResizePlots@Classless@@YAXH@Z (void __cdecl Classless::ResizePlots(int))
                  ?ResizePlots@Classless@@YAXHHH@Z (void __cdecl Classless::ResizePlots(int,int,int))
                  ?ResizeSplit@CChart@NsCChart@@SA_NPAV12@H@Z (public: static bool __cdecl NsCChart::CChart::ResizeSplit(class NsCChart::CChart *,int))
                  ?SaveImageToFile@CChart@NsCChart@@QAEXPAUHWND__@@PA_W1@Z (public: void __thiscall NsCChart::CChart::SaveImageToFile(struct HWND__ *,wchar_t *,wchar_t *))
                  ?SaveImageToFile@Classless@@YAXPAUHWND__@@PA_W1@Z (void __cdecl Classless::SaveImageToFile(struct HWND__ *,wchar_t *,wchar_t *))
                  ?SetApperanceMode@CChart@NsCChart@@QAEXH@Z (public: void __thiscall NsCChart::CChart::SetApperanceMode(int))
                  ?SetApperanceMode@Classless@@YAXH@Z (void __cdecl Classless::SetApperanceMode(int))
                  ?SetAtomX@CChart@NsCChart@@QAEXN@Z (public: void __thiscall NsCChart::CChart::SetAtomX(double))
                  ?SetAtomX@CChart@NsCChart@@QAEXNH@Z (public: void __thiscall NsCChart::CChart::SetAtomX(double,int))
                  ?SetAtomX@Classless@@YAXN@Z (void __cdecl Classless::SetAtomX(double))
                  ?SetAtomX@Classless@@YAXNH@Z (void __cdecl Classless::SetAtomX(double,int))
                  ?SetAtomY@CChart@NsCChart@@QAEXN@Z (public: void __thiscall NsCChart::CChart::SetAtomY(double))
                  ?SetAtomY@CChart@NsCChart@@QAEXNH@Z (public: void __thiscall NsCChart::CChart::SetAtomY(double,int))
                  ?SetAtomY@Classless@@YAXN@Z (void __cdecl Classless::SetAtomY(double))
                  ?SetAtomY@Classless@@YAXNH@Z (void __cdecl Classless::SetAtomY(double,int))
                  ?SetAtomZeroX@CChart@NsCChart@@QAEXN@Z (public: void __thiscall NsCChart::CChart::SetAtomZeroX(double))
                  ?SetAtomZeroX@CChart@NsCChart@@QAEXNH@Z (public: void __thiscall NsCChart::CChart::SetAtomZeroX(double,int))
                  ?SetAtomZeroX@Classless@@YAXN@Z (void __cdecl Classless::SetAtomZeroX(double))
                  ?SetAtomZeroX@Classless@@YAXNH@Z (void __cdecl Classless::SetAtomZeroX(double,int))
                  ?SetAtomZeroY@CChart@NsCChart@@QAEXN@Z (public: void __thiscall NsCChart::CChart::SetAtomZeroY(double))
                  ?SetAtomZeroY@CChart@NsCChart@@QAEXNH@Z (public: void __thiscall NsCChart::CChart::SetAtomZeroY(double,int))
                  ?SetAtomZeroY@Classless@@YAXN@Z (void __cdecl Classless::SetAtomZeroY(double))
                  ?SetAtomZeroY@Classless@@YAXNH@Z (void __cdecl Classless::SetAtomZeroY(double,int))
                  ?SetAutoDataColor@CChart@NsCChart@@QAEX_NHH@Z (public: void __thiscall NsCChart::CChart::SetAutoDataColor(bool,int,int))
                  ?SetAutoDataColor@Classless@@YAX_NHH@Z (void __cdecl Classless::SetAutoDataColor(bool,int,int))
                  ?SetAutoDataColorGeneral@CChart@NsCChart@@QAEX_NH@Z (public: void __thiscall NsCChart::CChart::SetAutoDataColorGeneral(bool,int))
                  ?SetAutoDataColorGeneral@Classless@@YAX_NH@Z (void __cdecl Classless::SetAutoDataColorGeneral(bool,int))
                  ?SetAutoMapRange@CChart@NsCChart@@QAEX_N@Z (public: void __thiscall NsCChart::CChart::SetAutoMapRange(bool))
                  ?SetAutoMapRange@Classless@@YAX_N@Z (void __cdecl Classless::SetAutoMapRange(bool))
                  ?SetAutoRange@CChart@NsCChart@@QAEX_N@Z (public: void __thiscall NsCChart::CChart::SetAutoRange(bool))
                  ?SetAutoRange@CChart@NsCChart@@QAEX_NH@Z (public: void __thiscall NsCChart::CChart::SetAutoRange(bool,int))
                  ?SetAutoRange@Classless@@YAX_N@Z (void __cdecl Classless::SetAutoRange(bool))
                  ?SetAutoRange@Classless@@YAX_NH@Z (void __cdecl Classless::SetAutoRange(bool,int))
                  ?SetAutoRedraw@CChart@NsCChart@@QAEX_N@Z (public: void __thiscall NsCChart::CChart::SetAutoRedraw(bool))
                  ?SetAutoRedraw@Classless@@YAX_N@Z (void __cdecl Classless::SetAutoRedraw(bool))
                  ?SetAxesCompact@CChart@NsCChart@@QAEXH@Z (public: void __thiscall NsCChart::CChart::SetAxesCompact(int))
                  ?SetAxesCompact@Classless@@YAXH@Z (void __cdecl Classless::SetAxesCompact(int))
                  ?SetAxisColor@CChart@NsCChart@@QAEXKH@Z (public: void __thiscall NsCChart::CChart::SetAxisColor(unsigned long,int))
                  ?SetAxisColor@CChart@NsCChart@@QAEXKHH@Z (public: void __thiscall NsCChart::CChart::SetAxisColor(unsigned long,int,int))
                  ?SetAxisColor@Classless@@YAXKH@Z (void __cdecl Classless::SetAxisColor(unsigned long,int))
                  ?SetAxisColor@Classless@@YAXKHH@Z (void __cdecl Classless::SetAxisColor(unsigned long,int,int))
                  ?SetAxisColorBar@CChart@NsCChart@@QAEX_NH@Z (public: void __thiscall NsCChart::CChart::SetAxisColorBar(bool,int))
                  ?SetAxisColorBar@CChart@NsCChart@@QAEX_NHH@Z (public: void __thiscall NsCChart::CChart::SetAxisColorBar(bool,int,int))
                  ?SetAxisColorBar@Classless@@YAX_NH@Z (void __cdecl Classless::SetAxisColorBar(bool,int))
                  ?SetAxisColorBar@Classless@@YAX_NHH@Z (void __cdecl Classless::SetAxisColorBar(bool,int,int))
                  ?SetAxisGap@CChart@NsCChart@@QAEXHH@Z (public: void __thiscall NsCChart::CChart::SetAxisGap(int,int))
                  ?SetAxisGap@CChart@NsCChart@@QAEXHHH@Z (public: void __thiscall NsCChart::CChart::SetAxisGap(int,int,int))
                  ?SetAxisGap@Classless@@YAXHH@Z (void __cdecl Classless::SetAxisGap(int,int))
                  ?SetAxisGap@Classless@@YAXHHH@Z (void __cdecl Classless::SetAxisGap(int,int,int))
                  ?SetAxisLabelAtEnd@CChart@NsCChart@@QAEX_NH@Z (public: void __thiscall NsCChart::CChart::SetAxisLabelAtEnd(bool,int))
                  ?SetAxisLabelAtEnd@CChart@NsCChart@@QAEX_NHH@Z (public: void __thiscall NsCChart::CChart::SetAxisLabelAtEnd(bool,int,int))
                  ?SetAxisLabelAtEnd@Classless@@YAX_NH@Z (void __cdecl Classless::SetAxisLabelAtEnd(bool,int))
                  ?SetAxisLabelAtEnd@Classless@@YAX_NHH@Z (void __cdecl Classless::SetAxisLabelAtEnd(bool,int,int))
                  ?SetAxisLabelFont@CChart@NsCChart@@QAEXUtagLOGFONTW@@H@Z (public: void __thiscall NsCChart::CChart::SetAxisLabelFont(struct tagLOGFONTW,int))
                  ?SetAxisLabelFont@CChart@NsCChart@@QAEXUtagLOGFONTW@@HH@Z (public: void __thiscall NsCChart::CChart::SetAxisLabelFont(struct tagLOGFONTW,int,int))
                  ?SetAxisLabelFont@Classless@@YAXUtagLOGFONTW@@H@Z (void __cdecl Classless::SetAxisLabelFont(struct tagLOGFONTW,int))
                  ?SetAxisLabelFont@Classless@@YAXUtagLOGFONTW@@HH@Z (void __cdecl Classless::SetAxisLabelFont(struct tagLOGFONTW,int,int))
                  ?SetAxisLabelFormat@CChart@NsCChart@@QAEXPA_WH@Z (public: void __thiscall NsCChart::CChart::SetAxisLabelFormat(wchar_t *,int))
                  ?SetAxisLabelFormat@CChart@NsCChart@@QAEXPA_WHH@Z (public: void __thiscall NsCChart::CChart::SetAxisLabelFormat(wchar_t *,int,int))
                  ?SetAxisLabelFormat@Classless@@YAXPA_WH@Z (void __cdecl Classless::SetAxisLabelFormat(wchar_t *,int))
                  ?SetAxisLabelFormat@Classless@@YAXPA_WHH@Z (void __cdecl Classless::SetAxisLabelFormat(wchar_t *,int,int))
                  ?SetAxisLabelShow@CChart@NsCChart@@QAEX_NH@Z (public: void __thiscall NsCChart::CChart::SetAxisLabelShow(bool,int))
                  ?SetAxisLabelShow@CChart@NsCChart@@QAEX_NHH@Z (public: void __thiscall NsCChart::CChart::SetAxisLabelShow(bool,int,int))
                  ?SetAxisLabelShow@Classless@@YAX_NH@Z (void __cdecl Classless::SetAxisLabelShow(bool,int))
                  ?SetAxisLabelShow@Classless@@YAX_NHH@Z (void __cdecl Classless::SetAxisLabelShow(bool,int,int))
                  ?SetAxisLabelWithdraw@CChart@NsCChart@@QAEX_NH@Z (public: void __thiscall NsCChart::CChart::SetAxisLabelWithdraw(bool,int))
                  ?SetAxisLabelWithdraw@CChart@NsCChart@@QAEX_NHH@Z (public: void __thiscall NsCChart::CChart::SetAxisLabelWithdraw(bool,int,int))
                  ?SetAxisLabelWithdraw@Classless@@YAX_NH@Z (void __cdecl Classless::SetAxisLabelWithdraw(bool,int))
                  ?SetAxisLabelWithdraw@Classless@@YAX_NHH@Z (void __cdecl Classless::SetAxisLabelWithdraw(bool,int,int))
                  ?SetAxisLabelWithdrawLength@CChart@NsCChart@@QAEXHH@Z (public: void __thiscall NsCChart::CChart::SetAxisLabelWithdrawLength(int,int))
                  ?SetAxisLabelWithdrawLength@CChart@NsCChart@@QAEXHHH@Z (public: void __thiscall NsCChart::CChart::SetAxisLabelWithdrawLength(int,int,int))
                  ?SetAxisLabelWithdrawLength@Classless@@YAXHH@Z (void __cdecl Classless::SetAxisLabelWithdrawLength(int,int))
                  ?SetAxisLabelWithdrawLength@Classless@@YAXHHH@Z (void __cdecl Classless::SetAxisLabelWithdrawLength(int,int,int))
                  ?SetAxisMinorTickPosition@CChart@NsCChart@@QAEXHH@Z (public: void __thiscall NsCChart::CChart::SetAxisMinorTickPosition(int,int))
                  ?SetAxisMinorTickPosition@CChart@NsCChart@@QAEXHHH@Z (public: void __thiscall NsCChart::CChart::SetAxisMinorTickPosition(int,int,int))
                  ?SetAxisMinorTickPosition@Classless@@YAXHH@Z (void __cdecl Classless::SetAxisMinorTickPosition(int,int))
                  ?SetAxisMinorTickPosition@Classless@@YAXHHH@Z (void __cdecl Classless::SetAxisMinorTickPosition(int,int,int))
                  ?SetAxisShow@CChart@NsCChart@@QAEX_NH@Z (public: void __thiscall NsCChart::CChart::SetAxisShow(bool,int))
                  ?SetAxisShow@CChart@NsCChart@@QAEX_NHH@Z (public: void __thiscall NsCChart::CChart::SetAxisShow(bool,int,int))
                  ?SetAxisShow@Classless@@YAX_NH@Z (void __cdecl Classless::SetAxisShow(bool,int))
                  ?SetAxisShow@Classless@@YAX_NHH@Z (void __cdecl Classless::SetAxisShow(bool,int,int))
                  ?SetAxisTickPosition@CChart@NsCChart@@QAEXHH@Z (public: void __thiscall NsCChart::CChart::SetAxisTickPosition(int,int))
                  ?SetAxisTickPosition@CChart@NsCChart@@QAEXHHH@Z (public: void __thiscall NsCChart::CChart::SetAxisTickPosition(int,int,int))
                  ?SetAxisTickPosition@Classless@@YAXHH@Z (void __cdecl Classless::SetAxisTickPosition(int,int))
                  ?SetAxisTickPosition@Classless@@YAXHHH@Z (void __cdecl Classless::SetAxisTickPosition(int,int,int))
                  ?SetAxisTimeBase@CChart@NsCChart@@QAEXPA_W0H@Z (public: void __thiscall NsCChart::CChart::SetAxisTimeBase(wchar_t *,wchar_t *,int))
                  ?SetAxisTimeBase@CChart@NsCChart@@QAEXPA_W0HH@Z (public: void __thiscall NsCChart::CChart::SetAxisTimeBase(wchar_t *,wchar_t *,int,int))
                  ?SetAxisTimeBase@Classless@@YAXPA_W0H@Z (void __cdecl Classless::SetAxisTimeBase(wchar_t *,wchar_t *,int))
                  ?SetAxisTimeBase@Classless@@YAXPA_W0HH@Z (void __cdecl Classless::SetAxisTimeBase(wchar_t *,wchar_t *,int,int))
                  ?SetAxisTimeFormat@CChart@NsCChart@@QAEXPA_WH@Z (public: void __thiscall NsCChart::CChart::SetAxisTimeFormat(wchar_t *,int))
                  ?SetAxisTimeFormat@CChart@NsCChart@@QAEXPA_WHH@Z (public: void __thiscall NsCChart::CChart::SetAxisTimeFormat(wchar_t *,int,int))
                  ?SetAxisTimeFormat@Classless@@YAXPA_WH@Z (void __cdecl Classless::SetAxisTimeFormat(wchar_t *,int))
                  ?SetAxisTimeFormat@Classless@@YAXPA_WHH@Z (void __cdecl Classless::SetAxisTimeFormat(wchar_t *,int,int))
                  ?SetAxisTimeMixMode@CChart@NsCChart@@QAEX_NH@Z (public: void __thiscall NsCChart::CChart::SetAxisTimeMixMode(bool,int))
                  ?SetAxisTimeMixMode@CChart@NsCChart@@QAEX_NHH@Z (public: void __thiscall NsCChart::CChart::SetAxisTimeMixMode(bool,int,int))
                  ?SetAxisTimeMixMode@Classless@@YAX_NH@Z (void __cdecl Classless::SetAxisTimeMixMode(bool,int))
                  ?SetAxisTimeMixMode@Classless@@YAX_NHH@Z (void __cdecl Classless::SetAxisTimeMixMode(bool,int,int))
                  ?SetAxisTitle@CChart@NsCChart@@QAEXPB_WH@Z (public: void __thiscall NsCChart::CChart::SetAxisTitle(wchar_t const *,int))
                  ?SetAxisTitle@CChart@NsCChart@@QAEXPB_WHH@Z (public: void __thiscall NsCChart::CChart::SetAxisTitle(wchar_t const *,int,int))
                  ?SetAxisTitle@Classless@@YAXPB_WH@Z (void __cdecl Classless::SetAxisTitle(wchar_t const *,int))
                  ?SetAxisTitle@Classless@@YAXPB_WHH@Z (void __cdecl Classless::SetAxisTitle(wchar_t const *,int,int))
                  ?SetAxisTitleFont@CChart@NsCChart@@QAEXUtagLOGFONTW@@H@Z (public: void __thiscall NsCChart::CChart::SetAxisTitleFont(struct tagLOGFONTW,int))
                  ?SetAxisTitleFont@CChart@NsCChart@@QAEXUtagLOGFONTW@@HH@Z (public: void __thiscall NsCChart::CChart::SetAxisTitleFont(struct tagLOGFONTW,int,int))
                  ?SetAxisTitleFont@Classless@@YAXUtagLOGFONTW@@H@Z (void __cdecl Classless::SetAxisTitleFont(struct tagLOGFONTW,int))
                  ?SetAxisTitleFont@Classless@@YAXUtagLOGFONTW@@HH@Z (void __cdecl Classless::SetAxisTitleFont(struct tagLOGFONTW,int,int))
                  ?SetAxisTitlePosition@CChart@NsCChart@@QAEXHH@Z (public: void __thiscall NsCChart::CChart::SetAxisTitlePosition(int,int))
                  ?SetAxisTitlePosition@CChart@NsCChart@@QAEXHHH@Z (public: void __thiscall NsCChart::CChart::SetAxisTitlePosition(int,int,int))
                  ?SetAxisTitlePosition@Classless@@YAXHH@Z (void __cdecl Classless::SetAxisTitlePosition(int,int))
                  ?SetAxisTitlePosition@Classless@@YAXHHH@Z (void __cdecl Classless::SetAxisTitlePosition(int,int,int))
                  ?SetAxisToTime@CChart@NsCChart@@QAEX_NH@Z (public: void __thiscall NsCChart::CChart::SetAxisToTime(bool,int))
                  ?SetAxisToTime@CChart@NsCChart@@QAEX_NHH@Z (public: void __thiscall NsCChart::CChart::SetAxisToTime(bool,int,int))
                  ?SetAxisToTime@Classless@@YAX_NH@Z (void __cdecl Classless::SetAxisToTime(bool,int))
                  ?SetAxisToTime@Classless@@YAX_NHH@Z (void __cdecl Classless::SetAxisToTime(bool,int,int))
                  ?SetBiColorMode@CChart@NsCChart@@QAEX_NHH@Z (public: void __thiscall NsCChart::CChart::SetBiColorMode(bool,int,int))
                  ?SetBiColorMode@Classless@@YAX_NHH@Z (void __cdecl Classless::SetBiColorMode(bool,int,int))
                  ?SetBkgndColor@CChart@NsCChart@@QAEXK@Z (public: void __thiscall NsCChart::CChart::SetBkgndColor(unsigned long))
                  ?SetBkgndColor@CChart@NsCChart@@QAEXKH@Z (public: void __thiscall NsCChart::CChart::SetBkgndColor(unsigned long,int))
                  ?SetBkgndColor@Classless@@YAXK@Z (void __cdecl Classless::SetBkgndColor(unsigned long))
                  ?SetBkgndColor@Classless@@YAXKH@Z (void __cdecl Classless::SetBkgndColor(unsigned long,int))
                  ?SetBkgndImage@CChart@NsCChart@@QAEXPA_W@Z (public: void __thiscall NsCChart::CChart::SetBkgndImage(wchar_t *))
                  ?SetBkgndImage@Classless@@YAXPA_W@Z (void __cdecl Classless::SetBkgndImage(wchar_t *))
                  ?SetBorderColor@CChart@NsCChart@@QAEXK@Z (public: void __thiscall NsCChart::CChart::SetBorderColor(unsigned long))
                  ?SetBorderColor@Classless@@YAXK@Z (void __cdecl Classless::SetBorderColor(unsigned long))
                  ?SetBorderShow@CChart@NsCChart@@QAEX_N@Z (public: void __thiscall NsCChart::CChart::SetBorderShow(bool))
                  ?SetBorderShow@Classless@@YAX_N@Z (void __cdecl Classless::SetBorderShow(bool))
                  ?SetBorderWidth@CChart@NsCChart@@QAEXH@Z (public: void __thiscall NsCChart::CChart::SetBorderWidth(int))
                  ?SetBorderWidth@Classless@@YAXH@Z (void __cdecl Classless::SetBorderWidth(int))
                  ?SetChart@CChartWnd@NsCChart@@QAEPAVCChart@2@PAV32@H@Z (public: class NsCChart::CChart * __thiscall NsCChart::CChartWnd::SetChart(class NsCChart::CChart *,int))
                  ?SetChartType@CChartWnd@NsCChart@@QAE_NHH@Z (public: bool __thiscall NsCChart::CChartWnd::SetChartType(int,int))
                  ?SetChartType@Classless@@YA_NHH@Z (bool __cdecl Classless::SetChartType(int,int))
                  ?SetClipXData@CChart@NsCChart@@QAEX_NHH@Z (public: void __thiscall NsCChart::CChart::SetClipXData(bool,int,int))
                  ?SetClipXData@Classless@@YAX_NHH@Z (void __cdecl Classless::SetClipXData(bool,int,int))
                  ?SetClipYData@CChart@NsCChart@@QAEX_NHH@Z (public: void __thiscall NsCChart::CChart::SetClipYData(bool,int,int))
                  ?SetClipYData@Classless@@YAX_NHH@Z (void __cdecl Classless::SetClipYData(bool,int,int))
                  ?SetColRatio@CChart@NsCChart@@QAEXNHH@Z (public: void __thiscall NsCChart::CChart::SetColRatio(double,int,int))
                  ?SetColRatio@Classless@@YAXNHH@Z (void __cdecl Classless::SetColRatio(double,int,int))
                  ?SetColorPtByPt@CChart@NsCChart@@QAEX_NHH@Z (public: void __thiscall NsCChart::CChart::SetColorPtByPt(bool,int,int))
                  ?SetColorPtByPt@Classless@@YAX_NHH@Z (void __cdecl Classless::SetColorPtByPt(bool,int,int))
                  ?SetColorTable@CChart@NsCChart@@SAXH@Z (public: static void __cdecl NsCChart::CChart::SetColorTable(int))
                  ?SetColorTable@Classless@@YAXH@Z (void __cdecl Classless::SetColorTable(int))
                  ?SetCommentPos@CChart@NsCChart@@QAEXHNNH@Z (public: void __thiscall NsCChart::CChart::SetCommentPos(int,double,double,int))
                  ?SetCommentPos@Classless@@YAXHNNH@Z (void __cdecl Classless::SetCommentPos(int,double,double,int))
                  ?SetCommentPosRelative@CChart@NsCChart@@QAEX_NHH@Z (public: void __thiscall NsCChart::CChart::SetCommentPosRelative(bool,int,int))
                  ?SetCommentPosRelative@Classless@@YAX_NHH@Z (void __cdecl Classless::SetCommentPosRelative(bool,int,int))
                  ?SetConfineRect@CChart@NsCChart@@QAE_NUtagRECT@@@Z (public: bool __thiscall NsCChart::CChart::SetConfineRect(struct tagRECT))
                  ?SetConfineRect@Classless@@YA_NUtagRECT@@@Z (bool __cdecl Classless::SetConfineRect(struct tagRECT))
                  ?SetContinuePaint@CChart@NsCChart@@QAEX_N@Z (public: void __thiscall NsCChart::CChart::SetContinuePaint(bool))
                  ?SetContinuePaint@Classless@@YAX_N@Z (void __cdecl Classless::SetContinuePaint(bool))
                  ?SetContinueReact@CChart@NsCChart@@QAEX_N@Z (public: void __thiscall NsCChart::CChart::SetContinueReact(bool))
                  ?SetContinueReact@Classless@@YAX_N@Z (void __cdecl Classless::SetContinueReact(bool))
                  ?SetContourByPoints@CChart@NsCChart@@QAEXXZ (public: void __thiscall NsCChart::CChart::SetContourByPoints(void))
                  ?SetContourByPoints@Classless@@YAXXZ (void __cdecl Classless::SetContourByPoints(void))
                  ?SetContourHoleColor@CChart@NsCChart@@QAEXK@Z (public: void __thiscall NsCChart::CChart::SetContourHoleColor(unsigned long))
                  ?SetContourHoleColor@Classless@@YAXK@Z (void __cdecl Classless::SetContourHoleColor(unsigned long))
                  ?SetContourHoleFlag@CChart@NsCChart@@QAEX_N@Z (public: void __thiscall NsCChart::CChart::SetContourHoleFlag(bool))
                  ?SetContourHoleFlag@Classless@@YAX_N@Z (void __cdecl Classless::SetContourHoleFlag(bool))
                  ?SetContourLineNum@CChart@NsCChart@@QAEXH@Z (public: void __thiscall NsCChart::CChart::SetContourLineNum(int))
                  ?SetContourLineNum@Classless@@YAXH@Z (void __cdecl Classless::SetContourLineNum(int))
                  ?SetContourLineShow@CChart@NsCChart@@QAEX_N@Z (public: void __thiscall NsCChart::CChart::SetContourLineShow(bool))
                  ?SetContourLineShow@Classless@@YAX_N@Z (void __cdecl Classless::SetContourLineShow(bool))
                  ?SetContourPrecision@CChart@NsCChart@@QAEXH@Z (public: void __thiscall NsCChart::CChart::SetContourPrecision(int))
                  ?SetContourPrecision@Classless@@YAXH@Z (void __cdecl Classless::SetContourPrecision(int))
                  ?SetContourUserAction@CChart@NsCChart@@QAEXP6AXXZ@Z (public: void __thiscall NsCChart::CChart::SetContourUserAction(void (__cdecl*)(void)))
                  ?SetContourUserAction@Classless@@YAXP6AXXZ@Z (void __cdecl Classless::SetContourUserAction(void (__cdecl*)(void)))
                  ?SetContourValueShow@CChart@NsCChart@@QAEX_N@Z (public: void __thiscall NsCChart::CChart::SetContourValueShow(bool))
                  ?SetContourValueShow@Classless@@YAX_N@Z (void __cdecl Classless::SetContourValueShow(bool))
                  ?SetCursorColor@CChart@NsCChart@@QAEXKH@Z (public: void __thiscall NsCChart::CChart::SetCursorColor(unsigned long,int))
                  ?SetCursorColor@Classless@@YAXKH@Z (void __cdecl Classless::SetCursorColor(unsigned long,int))
                  ?SetCursorSize@CChart@NsCChart@@QAEXHH@Z (public: void __thiscall NsCChart::CChart::SetCursorSize(int,int))
                  ?SetCursorSize@Classless@@YAXHH@Z (void __cdecl Classless::SetCursorSize(int,int))
                  ?SetCursorStyle@CChart@NsCChart@@QAEXHH@Z (public: void __thiscall NsCChart::CChart::SetCursorStyle(int,int))
                  ?SetCursorStyle@Classless@@YAXHH@Z (void __cdecl Classless::SetCursorStyle(int,int))
                  ?SetCursorX@CChart@NsCChart@@QAEXNH@Z (public: void __thiscall NsCChart::CChart::SetCursorX(double,int))
                  ?SetCursorX@Classless@@YAXNH@Z (void __cdecl Classless::SetCursorX(double,int))
                  ?SetCursorY@CChart@NsCChart@@QAEXNH@Z (public: void __thiscall NsCChart::CChart::SetCursorY(double,int))
                  ?SetCursorY@Classless@@YAXNH@Z (void __cdecl Classless::SetCursorY(double,int))
                  ?SetDataAutoSlick@CChart@NsCChart@@QAEX_NHH@Z (public: void __thiscall NsCChart::CChart::SetDataAutoSlick(bool,int,int))
                  ?SetDataAutoSlick@Classless@@YAX_NHH@Z (void __cdecl Classless::SetDataAutoSlick(bool,int,int))
                  ?SetDataBarMode@CChart@NsCChart@@QAEX_NHHHH@Z (public: void __thiscall NsCChart::CChart::SetDataBarMode(bool,int,int,int,int))
                  ?SetDataBarMode@Classless@@YAX_NHHHH@Z (void __cdecl Classless::SetDataBarMode(bool,int,int,int,int))
                  ?SetDataColor2@CChart@NsCChart@@QAEXKHH@Z (public: void __thiscall NsCChart::CChart::SetDataColor2(unsigned long,int,int))
                  ?SetDataColor2@Classless@@YAXKHH@Z (void __cdecl Classless::SetDataColor2(unsigned long,int,int))
                  ?SetDataColor@CChart@NsCChart@@QAEXKHH@Z (public: void __thiscall NsCChart::CChart::SetDataColor(unsigned long,int,int))
                  ?SetDataColor@Classless@@YAXKHH@Z (void __cdecl Classless::SetDataColor(unsigned long,int,int))
                  ?SetDataCompactDraw@CChart@NsCChart@@QAEX_NHH@Z (public: void __thiscall NsCChart::CChart::SetDataCompactDraw(bool,int,int))
                  ?SetDataCompactDraw@Classless@@YAX_NHH@Z (void __cdecl Classless::SetDataCompactDraw(bool,int,int))
                  ?SetDataFillColor@CChart@NsCChart@@QAEX_NKHHHH@Z (public: void __thiscall NsCChart::CChart::SetDataFillColor(bool,unsigned long,int,int,int,int))
                  ?SetDataFillColor@Classless@@YAX_NKHHHH@Z (void __cdecl Classless::SetDataFillColor(bool,unsigned long,int,int,int,int))
                  ?SetDataFlag@CChart@NsCChart@@QAEX_NHH@Z (public: void __thiscall NsCChart::CChart::SetDataFlag(bool,int,int))
                  ?SetDataFlag@Classless@@YAX_NHH@Z (void __cdecl Classless::SetDataFlag(bool,int,int))
                  ?SetDataForceGdiPlus@CChart@NsCChart@@QAEX_NHH@Z (public: void __thiscall NsCChart::CChart::SetDataForceGdiPlus(bool,int,int))
                  ?SetDataForceGdiPlus@Classless@@YAX_NHH@Z (void __cdecl Classless::SetDataForceGdiPlus(bool,int,int))
                  ?SetDataHistro@CChart@NsCChart@@QAEX_NHH@Z (public: void __thiscall NsCChart::CChart::SetDataHistro(bool,int,int))
                  ?SetDataHistro@Classless@@YAX_NHH@Z (void __cdecl Classless::SetDataHistro(bool,int,int))
                  ?SetDataID@CChart@NsCChart@@QAEXHHH@Z (public: void __thiscall NsCChart::CChart::SetDataID(int,int,int))
                  ?SetDataID@Classless@@YAXHHH@Z (void __cdecl Classless::SetDataID(int,int,int))
                  ?SetDataLineShow@CChart@NsCChart@@QAEX_NHH@Z (public: void __thiscall NsCChart::CChart::SetDataLineShow(bool,int,int))
                  ?SetDataLineShow@Classless@@YAX_NHH@Z (void __cdecl Classless::SetDataLineShow(bool,int,int))
                  ?SetDataLineSize@CChart@NsCChart@@QAEXHHH@Z (public: void __thiscall NsCChart::CChart::SetDataLineSize(int,int,int))
                  ?SetDataLineSize@Classless@@YAXHHH@Z (void __cdecl Classless::SetDataLineSize(int,int,int))
                  ?SetDataLineStyle@CChart@NsCChart@@QAEXHHH@Z (public: void __thiscall NsCChart::CChart::SetDataLineStyle(int,int,int))
                  ?SetDataLineStyle@Classless@@YAXHHH@Z (void __cdecl Classless::SetDataLineStyle(int,int,int))
                  ?SetDataMaxPoints@CChart@NsCChart@@QAEXHHH@Z (public: void __thiscall NsCChart::CChart::SetDataMaxPoints(int,int,int))
                  ?SetDataMaxPoints@Classless@@YAXHHH@Z (void __cdecl Classless::SetDataMaxPoints(int,int,int))
                  ?SetDataOffsetX@CChart@NsCChart@@QAEXNHH@Z (public: void __thiscall NsCChart::CChart::SetDataOffsetX(double,int,int))
                  ?SetDataOffsetX@Classless@@YAXNHH@Z (void __cdecl Classless::SetDataOffsetX(double,int,int))
                  ?SetDataOffsetY@CChart@NsCChart@@QAEXNHH@Z (public: void __thiscall NsCChart::CChart::SetDataOffsetY(double,int,int))
                  ?SetDataOffsetY@Classless@@YAXNHH@Z (void __cdecl Classless::SetDataOffsetY(double,int,int))
                  ?SetDataPointColor@CChart@NsCChart@@QAEXKHHH@Z (public: void __thiscall NsCChart::CChart::SetDataPointColor(unsigned long,int,int,int))
                  ?SetDataPointColor@Classless@@YAXKHHH@Z (void __cdecl Classless::SetDataPointColor(unsigned long,int,int,int))
                  ?SetDataProcessing@CChart@NsCChart@@SAX_N@Z (public: static void __cdecl NsCChart::CChart::SetDataProcessing(bool))
                  ?SetDataProcessing@Classless@@YAX_N@Z (void __cdecl Classless::SetDataProcessing(bool))
                  ?SetDataReact@CChart@NsCChart@@QAEX_NHH@Z (public: void __thiscall NsCChart::CChart::SetDataReact(bool,int,int))
                  ?SetDataReact@Classless@@YAX_NHH@Z (void __cdecl Classless::SetDataReact(bool,int,int))
                  ?SetDataSegHideMode@CChart@NsCChart@@QAEX_NHH@Z (public: void __thiscall NsCChart::CChart::SetDataSegHideMode(bool,int,int))
                  ?SetDataSegHideMode@Classless@@YAX_NHH@Z (void __cdecl Classless::SetDataSegHideMode(bool,int,int))
                  ?SetDataTitle@CChart@NsCChart@@QAEXPB_WHH@Z (public: void __thiscall NsCChart::CChart::SetDataTitle(wchar_t const *,int,int))
                  ?SetDataTitle@Classless@@YAXPB_WHH@Z (void __cdecl Classless::SetDataTitle(wchar_t const *,int,int))
                  ?SetDataValueFontSize@CChart@NsCChart@@QAEXHHH@Z (public: void __thiscall NsCChart::CChart::SetDataValueFontSize(int,int,int))
                  ?SetDataValueFontSize@Classless@@YAXHHH@Z (void __cdecl Classless::SetDataValueFontSize(int,int,int))
                  ?SetDataValueFreq@CChart@NsCChart@@QAEXHHH@Z (public: void __thiscall NsCChart::CChart::SetDataValueFreq(int,int,int))
                  ?SetDataValueFreq@Classless@@YAXHHH@Z (void __cdecl Classless::SetDataValueFreq(int,int,int))
                  ?SetDataValueShow@CChart@NsCChart@@QAEX_NHH@Z (public: void __thiscall NsCChart::CChart::SetDataValueShow(bool,int,int))
                  ?SetDataValueShow@Classless@@YAX_NHH@Z (void __cdecl Classless::SetDataValueShow(bool,int,int))
                  ?SetDataValueStartIndex@CChart@NsCChart@@QAEXHHH@Z (public: void __thiscall NsCChart::CChart::SetDataValueStartIndex(int,int,int))
                  ?SetDataValueStartIndex@Classless@@YAXHHH@Z (void __cdecl Classless::SetDataValueStartIndex(int,int,int))
                  ?SetDataValueType@CChart@NsCChart@@QAEXHHH@Z (public: void __thiscall NsCChart::CChart::SetDataValueType(int,int,int))
                  ?SetDataValueType@Classless@@YAXHHH@Z (void __cdecl Classless::SetDataValueType(int,int,int))
                  ?SetDataVisible@CChart@NsCChart@@QAEX_NHH@Z (public: void __thiscall NsCChart::CChart::SetDataVisible(bool,int,int))
                  ?SetDataVisible@Classless@@YAX_NHH@Z (void __cdecl Classless::SetDataVisible(bool,int,int))
                  ?SetDefImage@CChart@NsCChart@@QAEXPAUHBITMAP__@@@Z (public: void __thiscall NsCChart::CChart::SetDefImage(struct HBITMAP__ *))
                  ?SetDefImage@CChart@NsCChart@@QAEXPAUHBITMAP__@@H@Z (public: void __thiscall NsCChart::CChart::SetDefImage(struct HBITMAP__ *,int))
                  ?SetDefImage@Classless@@YAXPAUHBITMAP__@@@Z (void __cdecl Classless::SetDefImage(struct HBITMAP__ *))
                  ?SetDefImage@Classless@@YAXPAUHBITMAP__@@H@Z (void __cdecl Classless::SetDefImage(struct HBITMAP__ *,int))
                  ?SetDefMainString@CChart@NsCChart@@QAEXPA_W@Z (public: void __thiscall NsCChart::CChart::SetDefMainString(wchar_t *))
                  ?SetDefMainString@CChart@NsCChart@@QAEXPA_WH@Z (public: void __thiscall NsCChart::CChart::SetDefMainString(wchar_t *,int))
                  ?SetDefMainString@Classless@@YAXPA_W@Z (void __cdecl Classless::SetDefMainString(wchar_t *))
                  ?SetDefMainString@Classless@@YAXPA_WH@Z (void __cdecl Classless::SetDefMainString(wchar_t *,int))
                  ?SetDefMenus@CChart@NsCChart@@QAEX_N@Z (public: void __thiscall NsCChart::CChart::SetDefMenus(bool))
                  ?SetDefMenus@Classless@@YAX_N@Z (void __cdecl Classless::SetDefMenus(bool))
                  ?SetDefScreen@CChart@NsCChart@@QAEXP6AXPAXPAUHDC__@@UtagRECT@@0@Z0@Z (public: void __thiscall NsCChart::CChart::SetDefScreen(void (__cdecl*)(void *,struct HDC__ *,struct tagRECT,void *),void *))
                  ?SetDefScreen@CChart@NsCChart@@QAEXP6AXPAXPAUHDC__@@UtagRECT@@0@Z0H@Z (public: void __thiscall NsCChart::CChart::SetDefScreen(void (__cdecl*)(void *,struct HDC__ *,struct tagRECT,void *),void *,int))
                  ?SetDefSubString@CChart@NsCChart@@QAEXPA_W@Z (public: void __thiscall NsCChart::CChart::SetDefSubString(wchar_t *))
                  ?SetDefSubString@CChart@NsCChart@@QAEXPA_WH@Z (public: void __thiscall NsCChart::CChart::SetDefSubString(wchar_t *,int))
                  ?SetDefSubString@Classless@@YAXPA_W@Z (void __cdecl Classless::SetDefSubString(wchar_t *))
                  ?SetDefSubString@Classless@@YAXPA_WH@Z (void __cdecl Classless::SetDefSubString(wchar_t *,int))
                  ?SetDenseXTicks@CChart@NsCChart@@QAEX_N@Z (public: void __thiscall NsCChart::CChart::SetDenseXTicks(bool))
                  ?SetDenseXTicks@CChart@NsCChart@@QAEX_NH@Z (public: void __thiscall NsCChart::CChart::SetDenseXTicks(bool,int))
                  ?SetDenseYTicks@CChart@NsCChart@@QAEX_N@Z (public: void __thiscall NsCChart::CChart::SetDenseYTicks(bool))
                  ?SetDenseYTicks@CChart@NsCChart@@QAEX_NH@Z (public: void __thiscall NsCChart::CChart::SetDenseYTicks(bool,int))
                  ?SetDirectReDraw@CChartWnd@NsCChart@@QAEX_N@Z (public: void __thiscall NsCChart::CChartWnd::SetDirectReDraw(bool))
                  ?SetDirectReDraw@Classless@@YAX_N@Z (void __cdecl Classless::SetDirectReDraw(bool))
                  ?SetDoubleBuffer@CChart@NsCChart@@QAEX_N@Z (public: void __thiscall NsCChart::CChart::SetDoubleBuffer(bool))
                  ?SetDoubleBuffer@Classless@@YAX_N@Z (void __cdecl Classless::SetDoubleBuffer(bool))
                  ?SetDrawBasicAnyway@CChart@NsCChart@@QAEX_N@Z (public: void __thiscall NsCChart::CChart::SetDrawBasicAnyway(bool))
                  ?SetDrawBasicAnyway@CChart@NsCChart@@QAEX_NH@Z (public: void __thiscall NsCChart::CChart::SetDrawBasicAnyway(bool,int))
                  ?SetDrawBasicAnyway@Classless@@YAX_N@Z (void __cdecl Classless::SetDrawBasicAnyway(bool))
                  ?SetDrawBasicAnyway@Classless@@YAX_NH@Z (void __cdecl Classless::SetDrawBasicAnyway(bool,int))
                  ?SetEdgeColor@CChart@NsCChart@@QAEXK@Z (public: void __thiscall NsCChart::CChart::SetEdgeColor(unsigned long))
                  ?SetEdgeColor@Classless@@YAXK@Z (void __cdecl Classless::SetEdgeColor(unsigned long))
                  ?SetEdgeRoundConor@CChart@NsCChart@@QAEX_N@Z (public: void __thiscall NsCChart::CChart::SetEdgeRoundConor(bool))
                  ?SetEdgeRoundConor@Classless@@YAX_N@Z (void __cdecl Classless::SetEdgeRoundConor(bool))
                  ?SetEdgeShow@CChart@NsCChart@@QAEX_N@Z (public: void __thiscall NsCChart::CChart::SetEdgeShow(bool))
                  ?SetEdgeShow@CChart@NsCChart@@QAEX_NH@Z (public: void __thiscall NsCChart::CChart::SetEdgeShow(bool,int))
                  ?SetEdgeShow@Classless@@YAX_N@Z (void __cdecl Classless::SetEdgeShow(bool))
                  ?SetEdgeWidth@CChart@NsCChart@@QAEXH@Z (public: void __thiscall NsCChart::CChart::SetEdgeWidth(int))
                  ?SetEdgeWidth@Classless@@YAXH@Z (void __cdecl Classless::SetEdgeWidth(int))
                  ?SetEnableContourHole@CChart@NsCChart@@QAEX_N@Z (public: void __thiscall NsCChart::CChart::SetEnableContourHole(bool))
                  ?SetEnableContourHole@Classless@@YAX_N@Z (void __cdecl Classless::SetEnableContourHole(bool))
                  ?SetEnableDataDrag@CChart@NsCChart@@QAEX_N@Z (public: void __thiscall NsCChart::CChart::SetEnableDataDrag(bool))
                  ?SetEnableDataDrag@Classless@@YAX_N@Z (void __cdecl Classless::SetEnableDataDrag(bool))
                  ?SetEnableToolTip@CChart@NsCChart@@SAX_N@Z (public: static void __cdecl NsCChart::CChart::SetEnableToolTip(bool))
                  ?SetEnableToolTip@Classless@@YAX_N@Z (void __cdecl Classless::SetEnableToolTip(bool))
                  ?SetEnableZoneDrag@CChart@NsCChart@@QAEX_N@Z (public: void __thiscall NsCChart::CChart::SetEnableZoneDrag(bool))
                  ?SetEnableZoneDrag@Classless@@YAX_N@Z (void __cdecl Classless::SetEnableZoneDrag(bool))
                  ?SetEqualXYAxis@CChart@NsCChart@@QAEX_N@Z (public: void __thiscall NsCChart::CChart::SetEqualXYAxis(bool))
                  ?SetEqualXYAxis@Classless@@YAX_N@Z (void __cdecl Classless::SetEqualXYAxis(bool))
                  ?SetEqualXYRange@CChart@NsCChart@@QAEX_N@Z (public: void __thiscall NsCChart::CChart::SetEqualXYRange(bool))
                  ?SetEqualXYRange@Classless@@YAX_N@Z (void __cdecl Classless::SetEqualXYRange(bool))
                  ?SetEqualXYScale@CChart@NsCChart@@QAEX_N@Z (public: void __thiscall NsCChart::CChart::SetEqualXYScale(bool))
                  ?SetEqualXYScale@Classless@@YAX_N@Z (void __cdecl Classless::SetEqualXYScale(bool))
                  ?SetExactXRange@CChart@NsCChart@@QAEX_NH@Z (public: void __thiscall NsCChart::CChart::SetExactXRange(bool,int))
                  ?SetExactXRange@Classless@@YAX_NH@Z (void __cdecl Classless::SetExactXRange(bool,int))
                  ?SetExactYRange@CChart@NsCChart@@QAEX_NH@Z (public: void __thiscall NsCChart::CChart::SetExactYRange(bool,int))
                  ?SetExactYRange@Classless@@YAX_NH@Z (void __cdecl Classless::SetExactYRange(bool,int))
                  ?SetExcludeDataWhenUniteColor@CChart@NsCChart@@QAEX_NH@Z (public: void __thiscall NsCChart::CChart::SetExcludeDataWhenUniteColor(bool,int))
                  ?SetExcludeDataWhenUniteColor@Classless@@YAX_NH@Z (void __cdecl Classless::SetExcludeDataWhenUniteColor(bool,int))
                  ?SetFieldFcn@CChart@NsCChart@@QAEXP6ANNN@Z@Z (public: void __thiscall NsCChart::CChart::SetFieldFcn(double (__cdecl*)(double,double)))
                  ?SetFieldFcn@CChart@NsCChart@@QAEXP6GNNN@Z@Z (public: void __thiscall NsCChart::CChart::SetFieldFcn(double (__stdcall*)(double,double)))
                  ?SetFieldFcn@Classless@@YAXP6ANNN@Z@Z (void __cdecl Classless::SetFieldFcn(double (__cdecl*)(double,double)))
                  ?SetFieldFcn@Classless@@YAXP6GNNN@Z@Z (void __cdecl Classless::SetFieldFcn(double (__stdcall*)(double,double)))
                  ?SetFixedPlotRect@CChart@NsCChart@@QAEXJJJJH@Z (public: void __thiscall NsCChart::CChart::SetFixedPlotRect(long,long,long,long,int))
                  ?SetFixedPlotRect@Classless@@YAXJJJJH@Z (void __cdecl Classless::SetFixedPlotRect(long,long,long,long,int))
                  ?SetGradientBkgnd@CChart@NsCChart@@QAEX_N@Z (public: void __thiscall NsCChart::CChart::SetGradientBkgnd(bool))
                  ?SetGradientBkgnd@Classless@@YAX_N@Z (void __cdecl Classless::SetGradientBkgnd(bool))
                  ?SetGridBindLayer@CChart@NsCChart@@QAEXH@Z (public: void __thiscall NsCChart::CChart::SetGridBindLayer(int))
                  ?SetGridBindLayer@Classless@@YAXH@Z (void __cdecl Classless::SetGridBindLayer(int))
                  ?SetGridLine@CChart@NsCChart@@QAEX_N00000@Z (public: void __thiscall NsCChart::CChart::SetGridLine(bool,bool,bool,bool,bool,bool))
                  ?SetGridLine@CChart@NsCChart@@QAEX_N000@Z (public: void __thiscall NsCChart::CChart::SetGridLine(bool,bool,bool,bool))
                  ?SetGridLine@CChart@NsCChart@@QAEX_N000H@Z (public: void __thiscall NsCChart::CChart::SetGridLine(bool,bool,bool,bool,int))
                  ?SetGridLine@Classless@@YAX_N00000@Z (void __cdecl Classless::SetGridLine(bool,bool,bool,bool,bool,bool))
                  ?SetGridLine@Classless@@YAX_N000@Z (void __cdecl Classless::SetGridLine(bool,bool,bool,bool))
                  ?SetGridLine@Classless@@YAX_N000H@Z (void __cdecl Classless::SetGridLine(bool,bool,bool,bool,int))
                  ?SetHSelLower@CChart@NsCChart@@QAEXHH@Z (public: void __thiscall NsCChart::CChart::SetHSelLower(int,int))
                  ?SetHSelLower@Classless@@YAXHH@Z (void __cdecl Classless::SetHSelLower(int,int))
                  ?SetHSelUpper@CChart@NsCChart@@QAEXHH@Z (public: void __thiscall NsCChart::CChart::SetHSelUpper(int,int))
                  ?SetHSelUpper@Classless@@YAXHH@Z (void __cdecl Classless::SetHSelUpper(int,int))
                  ?SetHeatData@CChart@NsCChart@@QAEXNHH@Z (public: void __thiscall NsCChart::CChart::SetHeatData(double,int,int))
                  ?SetHeatData@Classless@@YAXNHH@Z (void __cdecl Classless::SetHeatData(double,int,int))
                  ?SetHeatDimension@CChart@NsCChart@@QAEXHH@Z (public: void __thiscall NsCChart::CChart::SetHeatDimension(int,int))
                  ?SetHeatDimension@Classless@@YAXHH@Z (void __cdecl Classless::SetHeatDimension(int,int))
                  ?SetHoldCursorToCurve@CChart@NsCChart@@QAEX_NH@Z (public: void __thiscall NsCChart::CChart::SetHoldCursorToCurve(bool,int))
                  ?SetHoldCursorToCurve@Classless@@YAX_NH@Z (void __cdecl Classless::SetHoldCursorToCurve(bool,int))
                  ?SetHoldCursorToMouse@CChart@NsCChart@@QAEX_NH@Z (public: void __thiscall NsCChart::CChart::SetHoldCursorToMouse(bool,int))
                  ?SetHoldCursorToMouse@Classless@@YAX_NH@Z (void __cdecl Classless::SetHoldCursorToMouse(bool,int))
                  ?SetImagePopupMenu@CChart@NsCChart@@SAX_N@Z (public: static void __cdecl NsCChart::CChart::SetImagePopupMenu(bool))
                  ?SetImagePopupMenu@Classless@@YAX_N@Z (void __cdecl Classless::SetImagePopupMenu(bool))
                  ?SetIndexToHoldCursor@CChart@NsCChart@@QAEXHH@Z (public: void __thiscall NsCChart::CChart::SetIndexToHoldCursor(int,int))
                  ?SetIndexToHoldCursor@Classless@@YAXHH@Z (void __cdecl Classless::SetIndexToHoldCursor(int,int))
                  ?SetLRAxis@CChart@NsCChart@@QAEXXZ (public: void __thiscall NsCChart::CChart::SetLRAxis(void))
                  ?SetLRAxis@Classless@@YAXXZ (void __cdecl Classless::SetLRAxis(void))
                  ?SetLangurage@CChart@NsCChart@@SAXH@Z (public: static void __cdecl NsCChart::CChart::SetLangurage(int))
                  ?SetLangurage@Classless@@YAXH@Z (void __cdecl Classless::SetLangurage(int))
                  ?SetLegendFont@CChart@NsCChart@@QAEXUtagLOGFONTW@@H@Z (public: void __thiscall NsCChart::CChart::SetLegendFont(struct tagLOGFONTW,int))
                  ?SetLegendFont@Classless@@YAXUtagLOGFONTW@@H@Z (void __cdecl Classless::SetLegendFont(struct tagLOGFONTW,int))
                  ?SetLegendFontHeight@CChart@NsCChart@@QAEXHH@Z (public: void __thiscall NsCChart::CChart::SetLegendFontHeight(int,int))
                  ?SetLegendFontHeight@Classless@@YAXHH@Z (void __cdecl Classless::SetLegendFontHeight(int,int))
                  ?SetLegendLevel@CChart@NsCChart@@QAEXHH@Z (public: void __thiscall NsCChart::CChart::SetLegendLevel(int,int))
                  ?SetLegendLevel@Classless@@YAXHH@Z (void __cdecl Classless::SetLegendLevel(int,int))
                  ?SetLegendMaxCols@CChart@NsCChart@@QAEXHH@Z (public: void __thiscall NsCChart::CChart::SetLegendMaxCols(int,int))
                  ?SetLegendMaxCols@Classless@@YAXHH@Z (void __cdecl Classless::SetLegendMaxCols(int,int))
                  ?SetLegendMaxRows@CChart@NsCChart@@QAEXHH@Z (public: void __thiscall NsCChart::CChart::SetLegendMaxRows(int,int))
                  ?SetLegendMaxRows@Classless@@YAXHH@Z (void __cdecl Classless::SetLegendMaxRows(int,int))
                  ?SetLegendPosition@CChart@NsCChart@@QAEXHH@Z (public: void __thiscall NsCChart::CChart::SetLegendPosition(int,int))
                  ?SetLegendPosition@Classless@@YAXHH@Z (void __cdecl Classless::SetLegendPosition(int,int))
                  ?SetLegendShow@CChart@NsCChart@@QAEX_NH@Z (public: void __thiscall NsCChart::CChart::SetLegendShow(bool,int))
                  ?SetLegendShow@Classless@@YAX_NH@Z (void __cdecl Classless::SetLegendShow(bool,int))
                  ?SetLightColor@CChart@NsCChart@@QAEXK@Z (public: void __thiscall NsCChart::CChart::SetLightColor(unsigned long))
                  ?SetLightColor@CChart@NsCChart@@QAEXKH@Z (public: void __thiscall NsCChart::CChart::SetLightColor(unsigned long,int))
                  ?SetLightColor@Classless@@YAXK@Z (void __cdecl Classless::SetLightColor(unsigned long))
                  ?SetLightColor@Classless@@YAXKH@Z (void __cdecl Classless::SetLightColor(unsigned long,int))
                  ?SetLightLineSize@CChart@NsCChart@@QAEXH@Z (public: void __thiscall NsCChart::CChart::SetLightLineSize(int))
                  ?SetLightLineSize@CChart@NsCChart@@QAEXHH@Z (public: void __thiscall NsCChart::CChart::SetLightLineSize(int,int))
                  ?SetLightLineSize@Classless@@YAXH@Z (void __cdecl Classless::SetLightLineSize(int))
                  ?SetLightLineSize@Classless@@YAXHH@Z (void __cdecl Classless::SetLightLineSize(int,int))
                  ?SetLightLineStyle@CChart@NsCChart@@QAEXH@Z (public: void __thiscall NsCChart::CChart::SetLightLineStyle(int))
                  ?SetLightLineStyle@CChart@NsCChart@@QAEXHH@Z (public: void __thiscall NsCChart::CChart::SetLightLineStyle(int,int))
                  ?SetLightLineStyle@Classless@@YAXH@Z (void __cdecl Classless::SetLightLineStyle(int))
                  ?SetLightLineStyle@Classless@@YAXHH@Z (void __cdecl Classless::SetLightLineStyle(int,int))
                  ?SetMajorGridColor@CChart@NsCChart@@QAEXK@Z (public: void __thiscall NsCChart::CChart::SetMajorGridColor(unsigned long))
                  ?SetMajorGridColor@CChart@NsCChart@@QAEXKH@Z (public: void __thiscall NsCChart::CChart::SetMajorGridColor(unsigned long,int))
                  ?SetMajorGridColor@Classless@@YAXK@Z (void __cdecl Classless::SetMajorGridColor(unsigned long))
                  ?SetMajorGridColor@Classless@@YAXKH@Z (void __cdecl Classless::SetMajorGridColor(unsigned long,int))
                  ?SetMajorGridLineSize@CChart@NsCChart@@QAEXH@Z (public: void __thiscall NsCChart::CChart::SetMajorGridLineSize(int))
                  ?SetMajorGridLineSize@CChart@NsCChart@@QAEXHH@Z (public: void __thiscall NsCChart::CChart::SetMajorGridLineSize(int,int))
                  ?SetMajorGridLineSize@Classless@@YAXH@Z (void __cdecl Classless::SetMajorGridLineSize(int))
                  ?SetMajorGridLineSize@Classless@@YAXHH@Z (void __cdecl Classless::SetMajorGridLineSize(int,int))
                  ?SetMajorGridLineStyle@CChart@NsCChart@@QAEXH@Z (public: void __thiscall NsCChart::CChart::SetMajorGridLineStyle(int))
                  ?SetMajorGridLineStyle@CChart@NsCChart@@QAEXHH@Z (public: void __thiscall NsCChart::CChart::SetMajorGridLineStyle(int,int))
                  ?SetMajorGridLineStyle@Classless@@YAXH@Z (void __cdecl Classless::SetMajorGridLineStyle(int))
                  ?SetMajorGridLineStyle@Classless@@YAXHH@Z (void __cdecl Classless::SetMajorGridLineStyle(int,int))
                  ?SetMapColor1@CChart@NsCChart@@QAEXK@Z (public: void __thiscall NsCChart::CChart::SetMapColor1(unsigned long))
                  ?SetMapColor1@Classless@@YAXK@Z (void __cdecl Classless::SetMapColor1(unsigned long))
                  ?SetMapColor2@CChart@NsCChart@@QAEXK@Z (public: void __thiscall NsCChart::CChart::SetMapColor2(unsigned long))
                  ?SetMapColor2@Classless@@YAXK@Z (void __cdecl Classless::SetMapColor2(unsigned long))
                  ?SetMapRange@CChart@NsCChart@@QAEXNN@Z (public: void __thiscall NsCChart::CChart::SetMapRange(double,double))
                  ?SetMapRange@Classless@@YAXNN@Z (void __cdecl Classless::SetMapRange(double,double))
                  ?SetMarginBottom@CChart@NsCChart@@QAEXH@Z (public: void __thiscall NsCChart::CChart::SetMarginBottom(int))
                  ?SetMarginBottom@CChart@NsCChart@@QAEXHH@Z (public: void __thiscall NsCChart::CChart::SetMarginBottom(int,int))
                  ?SetMarginBottom@Classless@@YAXH@Z (void __cdecl Classless::SetMarginBottom(int))
                  ?SetMarginBottom@Classless@@YAXHH@Z (void __cdecl Classless::SetMarginBottom(int,int))
                  ?SetMarginLeft@CChart@NsCChart@@QAEXH@Z (public: void __thiscall NsCChart::CChart::SetMarginLeft(int))
                  ?SetMarginLeft@CChart@NsCChart@@QAEXHH@Z (public: void __thiscall NsCChart::CChart::SetMarginLeft(int,int))
                  ?SetMarginLeft@Classless@@YAXH@Z (void __cdecl Classless::SetMarginLeft(int))
                  ?SetMarginLeft@Classless@@YAXHH@Z (void __cdecl Classless::SetMarginLeft(int,int))
                  ?SetMarginRight@CChart@NsCChart@@QAEXH@Z (public: void __thiscall NsCChart::CChart::SetMarginRight(int))
                  ?SetMarginRight@CChart@NsCChart@@QAEXHH@Z (public: void __thiscall NsCChart::CChart::SetMarginRight(int,int))
                  ?SetMarginRight@Classless@@YAXH@Z (void __cdecl Classless::SetMarginRight(int))
                  ?SetMarginRight@Classless@@YAXHH@Z (void __cdecl Classless::SetMarginRight(int,int))
                  ?SetMarginTop@CChart@NsCChart@@QAEXH@Z (public: void __thiscall NsCChart::CChart::SetMarginTop(int))
                  ?SetMarginTop@CChart@NsCChart@@QAEXHH@Z (public: void __thiscall NsCChart::CChart::SetMarginTop(int,int))
                  ?SetMarginTop@Classless@@YAXH@Z (void __cdecl Classless::SetMarginTop(int))
                  ?SetMarginTop@Classless@@YAXHH@Z (void __cdecl Classless::SetMarginTop(int,int))
                  ?SetMarkFirstPoint@CChart@NsCChart@@QAEX_NHH@Z (public: void __thiscall NsCChart::CChart::SetMarkFirstPoint(bool,int,int))
                  ?SetMarkFirstPoint@Classless@@YAX_NHH@Z (void __cdecl Classless::SetMarkFirstPoint(bool,int,int))
                  ?SetMarkLastPoint@CChart@NsCChart@@QAEX_NHH@Z (public: void __thiscall NsCChart::CChart::SetMarkLastPoint(bool,int,int))
                  ?SetMarkLastPoint@Classless@@YAX_NHH@Z (void __cdecl Classless::SetMarkLastPoint(bool,int,int))
                  ?SetMarkPointIndex@CChart@NsCChart@@QAEXHHH@Z (public: void __thiscall NsCChart::CChart::SetMarkPointIndex(int,int,int))
                  ?SetMarkPointIndex@Classless@@YAXHHH@Z (void __cdecl Classless::SetMarkPointIndex(int,int,int))
                  ?SetMarkSinglePoint@CChart@NsCChart@@QAEX_NHH@Z (public: void __thiscall NsCChart::CChart::SetMarkSinglePoint(bool,int,int))
                  ?SetMarkSinglePoint@Classless@@YAX_NHH@Z (void __cdecl Classless::SetMarkSinglePoint(bool,int,int))
                  ?SetMarkerFill@CChart@NsCChart@@QAEX_NHH@Z (public: void __thiscall NsCChart::CChart::SetMarkerFill(bool,int,int))
                  ?SetMarkerFill@Classless@@YAX_NHH@Z (void __cdecl Classless::SetMarkerFill(bool,int,int))
                  ?SetMarkerFreq@CChart@NsCChart@@QAEXHHH@Z (public: void __thiscall NsCChart::CChart::SetMarkerFreq(int,int,int))
                  ?SetMarkerFreq@Classless@@YAXHHH@Z (void __cdecl Classless::SetMarkerFreq(int,int,int))
                  ?SetMarkerShow@CChart@NsCChart@@QAEX_NHH@Z (public: void __thiscall NsCChart::CChart::SetMarkerShow(bool,int,int))
                  ?SetMarkerShow@Classless@@YAX_NHH@Z (void __cdecl Classless::SetMarkerShow(bool,int,int))
                  ?SetMarkerSize@CChart@NsCChart@@QAEXHHH@Z (public: void __thiscall NsCChart::CChart::SetMarkerSize(int,int,int))
                  ?SetMarkerSize@Classless@@YAXHHH@Z (void __cdecl Classless::SetMarkerSize(int,int,int))
                  ?SetMarkerStartIndex@CChart@NsCChart@@QAEXHHH@Z (public: void __thiscall NsCChart::CChart::SetMarkerStartIndex(int,int,int))
                  ?SetMarkerStartIndex@Classless@@YAXHHH@Z (void __cdecl Classless::SetMarkerStartIndex(int,int,int))
                  ?SetMarkerType@CChart@NsCChart@@QAEXHHH@Z (public: void __thiscall NsCChart::CChart::SetMarkerType(int,int,int))
                  ?SetMarkerType@Classless@@YAXHHH@Z (void __cdecl Classless::SetMarkerType(int,int,int))
                  ?SetMaxPies@CChart@NsCChart@@QAEXH@Z (public: void __thiscall NsCChart::CChart::SetMaxPies(int))
                  ?SetMaxPies@Classless@@YAXH@Z (void __cdecl Classless::SetMaxPies(int))
                  ?SetMinorGridColor@CChart@NsCChart@@QAEXK@Z (public: void __thiscall NsCChart::CChart::SetMinorGridColor(unsigned long))
                  ?SetMinorGridColor@CChart@NsCChart@@QAEXKH@Z (public: void __thiscall NsCChart::CChart::SetMinorGridColor(unsigned long,int))
                  ?SetMinorGridColor@Classless@@YAXK@Z (void __cdecl Classless::SetMinorGridColor(unsigned long))
                  ?SetMinorGridColor@Classless@@YAXKH@Z (void __cdecl Classless::SetMinorGridColor(unsigned long,int))
                  ?SetMinorGridLineSize@CChart@NsCChart@@QAEXH@Z (public: void __thiscall NsCChart::CChart::SetMinorGridLineSize(int))
                  ?SetMinorGridLineSize@CChart@NsCChart@@QAEXHH@Z (public: void __thiscall NsCChart::CChart::SetMinorGridLineSize(int,int))
                  ?SetMinorGridLineSize@Classless@@YAXH@Z (void __cdecl Classless::SetMinorGridLineSize(int))
                  ?SetMinorGridLineSize@Classless@@YAXHH@Z (void __cdecl Classless::SetMinorGridLineSize(int,int))
                  ?SetMinorGridLineStyle@CChart@NsCChart@@QAEXH@Z (public: void __thiscall NsCChart::CChart::SetMinorGridLineStyle(int))
                  ?SetMinorGridLineStyle@CChart@NsCChart@@QAEXHH@Z (public: void __thiscall NsCChart::CChart::SetMinorGridLineStyle(int,int))
                  ?SetMinorGridLineStyle@Classless@@YAXH@Z (void __cdecl Classless::SetMinorGridLineStyle(int))
                  ?SetMinorGridLineStyle@Classless@@YAXHH@Z (void __cdecl Classless::SetMinorGridLineStyle(int,int))
                  ?SetMouseAddContour@CChart@NsCChart@@QAEX_N@Z (public: void __thiscall NsCChart::CChart::SetMouseAddContour(bool))
                  ?SetMouseAddContour@Classless@@YAX_N@Z (void __cdecl Classless::SetMouseAddContour(bool))
                  ?SetMultiColorInputType@CChart@NsCChart@@QAEXHHH@Z (public: void __thiscall NsCChart::CChart::SetMultiColorInputType(int,int,int))
                  ?SetMultiColorInputType@Classless@@YAXHHH@Z (void __cdecl Classless::SetMultiColorInputType(int,int,int))
                  ?SetMultiColorMode@CChart@NsCChart@@QAEX_NHH@Z (public: void __thiscall NsCChart::CChart::SetMultiColorMode(bool,int,int))
                  ?SetMultiColorMode@Classless@@YAX_NHH@Z (void __cdecl Classless::SetMultiColorMode(bool,int,int))
                  ?SetOffsetClient@CChart@NsCChart@@QAEXHH@Z (public: void __thiscall NsCChart::CChart::SetOffsetClient(int,int))
                  ?SetOffsetClient@Classless@@YAXHH@Z (void __cdecl Classless::SetOffsetClient(int,int))
                  ?SetOptimalExactXRange@CChart@NsCChart@@QAEX_NH@Z (public: void __thiscall NsCChart::CChart::SetOptimalExactXRange(bool,int))
                  ?SetOptimalExactXRange@Classless@@YAX_NH@Z (void __cdecl Classless::SetOptimalExactXRange(bool,int))
                  ?SetOptimalExactYRange@CChart@NsCChart@@QAEX_NH@Z (public: void __thiscall NsCChart::CChart::SetOptimalExactYRange(bool,int))
                  ?SetOptimalExactYRange@Classless@@YAX_NH@Z (void __cdecl Classless::SetOptimalExactYRange(bool,int))
                  ?SetOptimalXExtend@CChart@NsCChart@@QAEX_NH@Z (public: void __thiscall NsCChart::CChart::SetOptimalXExtend(bool,int))
                  ?SetOptimalXExtend@Classless@@YAX_NH@Z (void __cdecl Classless::SetOptimalXExtend(bool,int))
                  ?SetOptimalYExtend@CChart@NsCChart@@QAEX_NH@Z (public: void __thiscall NsCChart::CChart::SetOptimalYExtend(bool,int))
                  ?SetOptimalYExtend@Classless@@YAX_NH@Z (void __cdecl Classless::SetOptimalYExtend(bool,int))
                  ?SetOscilloMode@CChart@NsCChart@@QAEX_NH@Z (public: void __thiscall NsCChart::CChart::SetOscilloMode(bool,int))
                  ?SetOscilloMode@Classless@@YAX_NH@Z (void __cdecl Classless::SetOscilloMode(bool,int))
                  ?SetPieColor@CChart@NsCChart@@QAEXKH@Z (public: void __thiscall NsCChart::CChart::SetPieColor(unsigned long,int))
                  ?SetPieColor@Classless@@YAXKH@Z (void __cdecl Classless::SetPieColor(unsigned long,int))
                  ?SetPieTitle@CChart@NsCChart@@QAEXPB_WH@Z (public: void __thiscall NsCChart::CChart::SetPieTitle(wchar_t const *,int))
                  ?SetPieTitle@Classless@@YAXPB_WH@Z (void __cdecl Classless::SetPieTitle(wchar_t const *,int))
                  ?SetPlotID@CChart@NsCChart@@QAEXH@Z (public: void __thiscall NsCChart::CChart::SetPlotID(int))
                  ?SetPlotRange@CChart@NsCChart@@QAEXNNNN@Z (public: void __thiscall NsCChart::CChart::SetPlotRange(double,double,double,double))
                  ?SetPlotRange@CChart@NsCChart@@QAEXQAN0@Z (public: void __thiscall NsCChart::CChart::SetPlotRange(double * const,double * const))
                  ?SetPlotRange@Classless@@YAXNNNN@Z (void __cdecl Classless::SetPlotRange(double,double,double,double))
                  ?SetPlotRange@Classless@@YAXQAN0@Z (void __cdecl Classless::SetPlotRange(double * const,double * const))
                  ?SetPlotRectFixed@CChart@NsCChart@@QAEX_N000H@Z (public: void __thiscall NsCChart::CChart::SetPlotRectFixed(bool,bool,bool,bool,int))
                  ?SetPlotRectFixed@Classless@@YAX_N000H@Z (void __cdecl Classless::SetPlotRectFixed(bool,bool,bool,bool,int))
                  ?SetPlotType@CChart@NsCChart@@QAEXHHH@Z (public: void __thiscall NsCChart::CChart::SetPlotType(int,int,int))
                  ?SetPlotType@Classless@@YAXHHH@Z (void __cdecl Classless::SetPlotType(int,int,int))
                  ?SetPluginMenu@CChart@NsCChart@@QAEXP6AXPAXPAUHMENU__@@0@ZP6AH0PAUHWND__@@H0@Z00@Z (public: void __thiscall NsCChart::CChart::SetPluginMenu(void (__cdecl*)(void *,struct HMENU__ *,void *),int (__cdecl*)(void *,struct HWND__ *,int,void *),void *,void *))
                  ?SetPluginMenu@Classless@@YAXP6AXPAXPAUHMENU__@@0@ZP6AH0PAUHWND__@@H0@Z00@Z (void __cdecl Classless::SetPluginMenu(void (__cdecl*)(void *,struct HMENU__ *,void *),int (__cdecl*)(void *,struct HWND__ *,int,void *),void *,void *))
                  ?SetPostKeyDownFunc@CChart@NsCChart@@QAEXP6A_NPAXPAUHDC__@@I0AA_N@Z0@Z (public: void __thiscall NsCChart::CChart::SetPostKeyDownFunc(bool (__cdecl*)(void *,struct HDC__ *,unsigned int,void *,bool &),void *))
                  ?SetPostLButtonDblClkFunc@CChart@NsCChart@@QAEXP6A_NPAXPAUHDC__@@UtagPOINT@@I0AA_N@Z0@Z (public: void __thiscall NsCChart::CChart::SetPostLButtonDblClkFunc(bool (__cdecl*)(void *,struct HDC__ *,struct tagPOINT,unsigned int,void *,bool &),void *))
                  ?SetPostLButtonDownFunc@CChart@NsCChart@@QAEXP6A_NPAXPAUHDC__@@UtagPOINT@@I0AA_N@Z0@Z (public: void __thiscall NsCChart::CChart::SetPostLButtonDownFunc(bool (__cdecl*)(void *,struct HDC__ *,struct tagPOINT,unsigned int,void *,bool &),void *))
                  ?SetPostLButtonUpFunc@CChart@NsCChart@@QAEXP6A_NPAXPAUHDC__@@UtagPOINT@@I0AA_N@Z0@Z (public: void __thiscall NsCChart::CChart::SetPostLButtonUpFunc(bool (__cdecl*)(void *,struct HDC__ *,struct tagPOINT,unsigned int,void *,bool &),void *))
                  ?SetPostMouseMoveFunc@CChart@NsCChart@@QAEXP6A_NPAXPAUHDC__@@UtagPOINT@@I0AA_N@Z0@Z (public: void __thiscall NsCChart::CChart::SetPostMouseMoveFunc(bool (__cdecl*)(void *,struct HDC__ *,struct tagPOINT,unsigned int,void *,bool &),void *))
                  ?SetPreKeyDownFunc@CChart@NsCChart@@QAEXP6A_NPAXPAUHDC__@@I0AA_N@Z0@Z (public: void __thiscall NsCChart::CChart::SetPreKeyDownFunc(bool (__cdecl*)(void *,struct HDC__ *,unsigned int,void *,bool &),void *))
                  ?SetPreLButtonDblClkFunc@CChart@NsCChart@@QAEXP6A_NPAXPAUHDC__@@UtagPOINT@@I0AA_N@Z0@Z (public: void __thiscall NsCChart::CChart::SetPreLButtonDblClkFunc(bool (__cdecl*)(void *,struct HDC__ *,struct tagPOINT,unsigned int,void *,bool &),void *))
                  ?SetPreLButtonDownFunc@CChart@NsCChart@@QAEXP6A_NPAXPAUHDC__@@UtagPOINT@@I0AA_N@Z0@Z (public: void __thiscall NsCChart::CChart::SetPreLButtonDownFunc(bool (__cdecl*)(void *,struct HDC__ *,struct tagPOINT,unsigned int,void *,bool &),void *))
                  ?SetPreLButtonUpFunc@CChart@NsCChart@@QAEXP6A_NPAXPAUHDC__@@UtagPOINT@@I0AA_N@Z0@Z (public: void __thiscall NsCChart::CChart::SetPreLButtonUpFunc(bool (__cdecl*)(void *,struct HDC__ *,struct tagPOINT,unsigned int,void *,bool &),void *))
                  ?SetPreMouseMoveFunc@CChart@NsCChart@@QAEXP6A_NPAXPAUHDC__@@UtagPOINT@@I0AA_N@Z0@Z (public: void __thiscall NsCChart::CChart::SetPreMouseMoveFunc(bool (__cdecl*)(void *,struct HDC__ *,struct tagPOINT,unsigned int,void *,bool &),void *))
                  ?SetReact@CChart@NsCChart@@QAEX_N@Z (public: void __thiscall NsCChart::CChart::SetReact(bool))
                  ?SetReact@Classless@@YAX_N@Z (void __cdecl Classless::SetReact(bool))
                  ?SetReactAxes@CChart@NsCChart@@QAEX_N@Z (public: void __thiscall NsCChart::CChart::SetReactAxes(bool))
                  ?SetReactAxes@Classless@@YAX_N@Z (void __cdecl Classless::SetReactAxes(bool))
                  ?SetReactContextMenu@CChart@NsCChart@@QAEX_N@Z (public: void __thiscall NsCChart::CChart::SetReactContextMenu(bool))
                  ?SetReactContextMenu@Classless@@YAX_N@Z (void __cdecl Classless::SetReactContextMenu(bool))
                  ?SetReactData@CChart@NsCChart@@QAEX_N@Z (public: void __thiscall NsCChart::CChart::SetReactData(bool))
                  ?SetReactData@Classless@@YAX_N@Z (void __cdecl Classless::SetReactData(bool))
                  ?SetReactKeyDown@CChart@NsCChart@@QAEX_N@Z (public: void __thiscall NsCChart::CChart::SetReactKeyDown(bool))
                  ?SetReactKeyDown@Classless@@YAX_N@Z (void __cdecl Classless::SetReactKeyDown(bool))
                  ?SetReactLButtonDblClk@CChart@NsCChart@@QAEX_N@Z (public: void __thiscall NsCChart::CChart::SetReactLButtonDblClk(bool))
                  ?SetReactLButtonDblClk@Classless@@YAX_N@Z (void __cdecl Classless::SetReactLButtonDblClk(bool))
                  ?SetReactLButtonDown@CChart@NsCChart@@QAEX_N@Z (public: void __thiscall NsCChart::CChart::SetReactLButtonDown(bool))
                  ?SetReactLButtonDown@Classless@@YAX_N@Z (void __cdecl Classless::SetReactLButtonDown(bool))
                  ?SetReactLButtonUp@CChart@NsCChart@@QAEX_N@Z (public: void __thiscall NsCChart::CChart::SetReactLButtonUp(bool))
                  ?SetReactLButtonUp@Classless@@YAX_N@Z (void __cdecl Classless::SetReactLButtonUp(bool))
                  ?SetReactLegend@CChart@NsCChart@@QAEX_N@Z (public: void __thiscall NsCChart::CChart::SetReactLegend(bool))
                  ?SetReactLegend@Classless@@YAX_N@Z (void __cdecl Classless::SetReactLegend(bool))
                  ?SetReactMouseMove@CChart@NsCChart@@QAEX_N@Z (public: void __thiscall NsCChart::CChart::SetReactMouseMove(bool))
                  ?SetReactMouseMove@Classless@@YAX_N@Z (void __cdecl Classless::SetReactMouseMove(bool))
                  ?SetReactTitle@CChart@NsCChart@@QAEX_N@Z (public: void __thiscall NsCChart::CChart::SetReactTitle(bool))
                  ?SetReactTitle@Classless@@YAX_N@Z (void __cdecl Classless::SetReactTitle(bool))
                  ?SetRectConfined@CChart@NsCChart@@QAEX_N@Z (public: void __thiscall NsCChart::CChart::SetRectConfined(bool))
                  ?SetRectConfined@Classless@@YAX_N@Z (void __cdecl Classless::SetRectConfined(bool))
                  ?SetReplaceLabel@CChart@NsCChart@@QAEX_NH@Z (public: void __thiscall NsCChart::CChart::SetReplaceLabel(bool,int))
                  ?SetReplaceLabel@CChart@NsCChart@@QAEX_NHH@Z (public: void __thiscall NsCChart::CChart::SetReplaceLabel(bool,int,int))
                  ?SetReplaceLabel@Classless@@YAX_NH@Z (void __cdecl Classless::SetReplaceLabel(bool,int))
                  ?SetReplaceLabel@Classless@@YAX_NHH@Z (void __cdecl Classless::SetReplaceLabel(bool,int,int))
                  ?SetReservedDataLength@CChart@NsCChart@@QAEXHH@Z (public: void __thiscall NsCChart::CChart::SetReservedDataLength(int,int))
                  ?SetReservedDataLength@Classless@@YAXHH@Z (void __cdecl Classless::SetReservedDataLength(int,int))
                  ?SetReservedMarginBottom@CChart@NsCChart@@QAEXH@Z (public: void __thiscall NsCChart::CChart::SetReservedMarginBottom(int))
                  ?SetReservedMarginBottom@CChart@NsCChart@@QAEXHH@Z (public: void __thiscall NsCChart::CChart::SetReservedMarginBottom(int,int))
                  ?SetReservedMarginBottom@Classless@@YAXH@Z (void __cdecl Classless::SetReservedMarginBottom(int))
                  ?SetReservedMarginBottom@Classless@@YAXHH@Z (void __cdecl Classless::SetReservedMarginBottom(int,int))
                  ?SetReservedMarginLeft@CChart@NsCChart@@QAEXH@Z (public: void __thiscall NsCChart::CChart::SetReservedMarginLeft(int))
                  ?SetReservedMarginLeft@CChart@NsCChart@@QAEXHH@Z (public: void __thiscall NsCChart::CChart::SetReservedMarginLeft(int,int))
                  ?SetReservedMarginLeft@Classless@@YAXH@Z (void __cdecl Classless::SetReservedMarginLeft(int))
                  ?SetReservedMarginLeft@Classless@@YAXHH@Z (void __cdecl Classless::SetReservedMarginLeft(int,int))
                  ?SetReservedMarginRight@CChart@NsCChart@@QAEXH@Z (public: void __thiscall NsCChart::CChart::SetReservedMarginRight(int))
                  ?SetReservedMarginRight@CChart@NsCChart@@QAEXHH@Z (public: void __thiscall NsCChart::CChart::SetReservedMarginRight(int,int))
                  ?SetReservedMarginRight@Classless@@YAXH@Z (void __cdecl Classless::SetReservedMarginRight(int))
                  ?SetReservedMarginRight@Classless@@YAXHH@Z (void __cdecl Classless::SetReservedMarginRight(int,int))
                  ?SetReservedMarginTop@CChart@NsCChart@@QAEXH@Z (public: void __thiscall NsCChart::CChart::SetReservedMarginTop(int))
                  ?SetReservedMarginTop@CChart@NsCChart@@QAEXHH@Z (public: void __thiscall NsCChart::CChart::SetReservedMarginTop(int,int))
                  ?SetReservedMarginTop@Classless@@YAXH@Z (void __cdecl Classless::SetReservedMarginTop(int))
                  ?SetReservedMarginTop@Classless@@YAXHH@Z (void __cdecl Classless::SetReservedMarginTop(int,int))
                  ?SetRightAxisAsLegend@CChart@NsCChart@@QAEX_N@Z (public: void __thiscall NsCChart::CChart::SetRightAxisAsLegend(bool))
                  ?SetRightAxisAsLegend@Classless@@YAX_N@Z (void __cdecl Classless::SetRightAxisAsLegend(bool))
                  ?SetRowRatio@CChart@NsCChart@@QAEXNHH@Z (public: void __thiscall NsCChart::CChart::SetRowRatio(double,int,int))
                  ?SetRowRatio@Classless@@YAXNHH@Z (void __cdecl Classless::SetRowRatio(double,int,int))
                  ?SetSLMode@CChart@NsCChart@@QAEXHHH@Z (public: void __thiscall NsCChart::CChart::SetSLMode(int,int,int))
                  ?SetSLMode@Classless@@YAXHHH@Z (void __cdecl Classless::SetSLMode(int,int,int))
                  ?SetScatter@CChart@NsCChart@@QAEXHH@Z (public: void __thiscall NsCChart::CChart::SetScatter(int,int))
                  ?SetScatter@Classless@@YAXHH@Z (void __cdecl Classless::SetScatter(int,int))
                  ?SetSegsPreferX@CChart@NsCChart@@QAEXH@Z (public: void __thiscall NsCChart::CChart::SetSegsPreferX(int))
                  ?SetSegsPreferX@CChart@NsCChart@@QAEXHH@Z (public: void __thiscall NsCChart::CChart::SetSegsPreferX(int,int))
                  ?SetSegsPreferX@Classless@@YAXH@Z (void __cdecl Classless::SetSegsPreferX(int))
                  ?SetSegsPreferX@Classless@@YAXHH@Z (void __cdecl Classless::SetSegsPreferX(int,int))
                  ?SetSegsPreferY@CChart@NsCChart@@QAEXH@Z (public: void __thiscall NsCChart::CChart::SetSegsPreferY(int))
                  ?SetSegsPreferY@CChart@NsCChart@@QAEXHH@Z (public: void __thiscall NsCChart::CChart::SetSegsPreferY(int,int))
                  ?SetSegsPreferY@Classless@@YAXH@Z (void __cdecl Classless::SetSegsPreferY(int))
                  ?SetSegsPreferY@Classless@@YAXHH@Z (void __cdecl Classless::SetSegsPreferY(int,int))
                  ?SetShowHCursor@CChart@NsCChart@@QAEX_NH@Z (public: void __thiscall NsCChart::CChart::SetShowHCursor(bool,int))
                  ?SetShowHCursor@Classless@@YAX_NH@Z (void __cdecl Classless::SetShowHCursor(bool,int))
                  ?SetShowHSel@CChart@NsCChart@@QAEX_NH@Z (public: void __thiscall NsCChart::CChart::SetShowHSel(bool,int))
                  ?SetShowHSel@Classless@@YAX_NH@Z (void __cdecl Classless::SetShowHSel(bool,int))
                  ?SetShowParentTitle@CChart@NsCChart@@QAEX_N@Z (public: void __thiscall NsCChart::CChart::SetShowParentTitle(bool))
                  ?SetShowParentTitle@Classless@@YAX_N@Z (void __cdecl Classless::SetShowParentTitle(bool))
                  ?SetShowTrigArrow@CChart@NsCChart@@QAEX_NH@Z (public: void __thiscall NsCChart::CChart::SetShowTrigArrow(bool,int))
                  ?SetShowTrigArrow@Classless@@YAX_NH@Z (void __cdecl Classless::SetShowTrigArrow(bool,int))
                  ?SetShowVCursor@CChart@NsCChart@@QAEX_NH@Z (public: void __thiscall NsCChart::CChart::SetShowVCursor(bool,int))
                  ?SetShowVCursor@Classless@@YAX_NH@Z (void __cdecl Classless::SetShowVCursor(bool,int))
                  ?SetShowVSel@CChart@NsCChart@@QAEX_NH@Z (public: void __thiscall NsCChart::CChart::SetShowVSel(bool,int))
                  ?SetShowVSel@Classless@@YAX_NH@Z (void __cdecl Classless::SetShowVSel(bool,int))
                  ?SetShowValOnTop@CChart@NsCChart@@QAEX_N@Z (public: void __thiscall NsCChart::CChart::SetShowValOnTop(bool))
                  ?SetShowValOnTop@Classless@@YAX_N@Z (void __cdecl Classless::SetShowValOnTop(bool))
                  ?SetShowXYMajorGrid@CChart@NsCChart@@QAEX_N@Z (public: void __thiscall NsCChart::CChart::SetShowXYMajorGrid(bool))
                  ?SetShowXYMajorGrid@Classless@@YAX_N@Z (void __cdecl Classless::SetShowXYMajorGrid(bool))
                  ?SetShowXYMinorGrid@CChart@NsCChart@@QAEX_N@Z (public: void __thiscall NsCChart::CChart::SetShowXYMinorGrid(bool))
                  ?SetShowXYMinorGrid@Classless@@YAX_N@Z (void __cdecl Classless::SetShowXYMinorGrid(bool))
                  ?SetShowYSCaleOnly@CChart@NsCChart@@QAEX_N@Z (public: void __thiscall NsCChart::CChart::SetShowYSCaleOnly(bool))
                  ?SetShowYSCaleOnly@Classless@@YAX_N@Z (void __cdecl Classless::SetShowYSCaleOnly(bool))
                  ?SetShowYZMajorGrid@CChart@NsCChart@@QAEX_N@Z (public: void __thiscall NsCChart::CChart::SetShowYZMajorGrid(bool))
                  ?SetShowYZMajorGrid@Classless@@YAX_N@Z (void __cdecl Classless::SetShowYZMajorGrid(bool))
                  ?SetShowYZMinorGrid@CChart@NsCChart@@QAEX_N@Z (public: void __thiscall NsCChart::CChart::SetShowYZMinorGrid(bool))
                  ?SetShowYZMinorGrid@Classless@@YAX_N@Z (void __cdecl Classless::SetShowYZMinorGrid(bool))
                  ?SetShowZXMajorGrid@CChart@NsCChart@@QAEX_N@Z (public: void __thiscall NsCChart::CChart::SetShowZXMajorGrid(bool))
                  ?SetShowZXMajorGrid@Classless@@YAX_N@Z (void __cdecl Classless::SetShowZXMajorGrid(bool))
                  ?SetShowZXMinorGrid@CChart@NsCChart@@QAEX_N@Z (public: void __thiscall NsCChart::CChart::SetShowZXMinorGrid(bool))
                  ?SetShowZXMinorGrid@Classless@@YAX_N@Z (void __cdecl Classless::SetShowZXMinorGrid(bool))
                  ?SetShowZeroArrow@CChart@NsCChart@@QAEX_NH@Z (public: void __thiscall NsCChart::CChart::SetShowZeroArrow(bool,int))
                  ?SetShowZeroArrow@Classless@@YAX_NH@Z (void __cdecl Classless::SetShowZeroArrow(bool,int))
                  ?SetStartOscilloScope@CChart@NsCChart@@QAEX_NH@Z (public: void __thiscall NsCChart::CChart::SetStartOscilloScope(bool,int))
                  ?SetStartOscilloScope@Classless@@YAX_NH@Z (void __cdecl Classless::SetStartOscilloScope(bool,int))
                  ?SetStaticRange@CChart@NsCChart@@QAEX_NH@Z (public: void __thiscall NsCChart::CChart::SetStaticRange(bool,int))
                  ?SetStaticRange@Classless@@YAX_NH@Z (void __cdecl Classless::SetStaticRange(bool,int))
                  ?SetStaticXRange@CChart@NsCChart@@QAEX_NH@Z (public: void __thiscall NsCChart::CChart::SetStaticXRange(bool,int))
                  ?SetStaticXRange@Classless@@YAX_NH@Z (void __cdecl Classless::SetStaticXRange(bool,int))
                  ?SetStaticYRange@CChart@NsCChart@@QAEX_NH@Z (public: void __thiscall NsCChart::CChart::SetStaticYRange(bool,int))
                  ?SetStaticYRange@Classless@@YAX_NH@Z (void __cdecl Classless::SetStaticYRange(bool,int))
                  ?SetStemBase@CChart@NsCChart@@QAEXH@Z (public: void __thiscall NsCChart::CChart::SetStemBase(int))
                  ?SetStemBase@Classless@@YAXH@Z (void __cdecl Classless::SetStemBase(int))
                  ?SetStemLabel@CChart@NsCChart@@QAEXPB_WH@Z (public: void __thiscall NsCChart::CChart::SetStemLabel(wchar_t const *,int))
                  ?SetStemLabel@Classless@@YAXPB_WH@Z (void __cdecl Classless::SetStemLabel(wchar_t const *,int))
                  ?SetStemMaxNum@CChart@NsCChart@@QAEXH@Z (public: void __thiscall NsCChart::CChart::SetStemMaxNum(int))
                  ?SetStemMaxNum@Classless@@YAXH@Z (void __cdecl Classless::SetStemMaxNum(int))
                  ?SetStemRatio@CChart@NsCChart@@QAEXN@Z (public: void __thiscall NsCChart::CChart::SetStemRatio(double))
                  ?SetStemRatio@Classless@@YAXN@Z (void __cdecl Classless::SetStemRatio(double))
                  ?SetStemTitle@CChart@NsCChart@@QAEXPB_WH@Z (public: void __thiscall NsCChart::CChart::SetStemTitle(wchar_t const *,int))
                  ?SetStemTitle@Classless@@YAXPB_WH@Z (void __cdecl Classless::SetStemTitle(wchar_t const *,int))
                  ?SetSubTitle@CChart@NsCChart@@QAEXPB_W@Z (public: void __thiscall NsCChart::CChart::SetSubTitle(wchar_t const *))
                  ?SetSubTitle@CChart@NsCChart@@QAEXPB_WH@Z (public: void __thiscall NsCChart::CChart::SetSubTitle(wchar_t const *,int))
                  ?SetSubTitle@Classless@@YAXPB_W@Z (void __cdecl Classless::SetSubTitle(wchar_t const *))
                  ?SetSubTitle@Classless@@YAXPB_WH@Z (void __cdecl Classless::SetSubTitle(wchar_t const *,int))
                  ?SetSubTitleColor@CChart@NsCChart@@QAEXK@Z (public: void __thiscall NsCChart::CChart::SetSubTitleColor(unsigned long))
                  ?SetSubTitleColor@CChart@NsCChart@@QAEXKH@Z (public: void __thiscall NsCChart::CChart::SetSubTitleColor(unsigned long,int))
                  ?SetSubTitleColor@Classless@@YAXK@Z (void __cdecl Classless::SetSubTitleColor(unsigned long))
                  ?SetSubTitleColor@Classless@@YAXKH@Z (void __cdecl Classless::SetSubTitleColor(unsigned long,int))
                  ?SetSubTitleFont@CChart@NsCChart@@QAEXUtagLOGFONTW@@@Z (public: void __thiscall NsCChart::CChart::SetSubTitleFont(struct tagLOGFONTW))
                  ?SetSubTitleFont@CChart@NsCChart@@QAEXUtagLOGFONTW@@H@Z (public: void __thiscall NsCChart::CChart::SetSubTitleFont(struct tagLOGFONTW,int))
                  ?SetSubTitleFont@Classless@@YAXUtagLOGFONTW@@@Z (void __cdecl Classless::SetSubTitleFont(struct tagLOGFONTW))
                  ?SetSubTitleFont@Classless@@YAXUtagLOGFONTW@@H@Z (void __cdecl Classless::SetSubTitleFont(struct tagLOGFONTW,int))
                  ?SetSubTitlePosition@CChart@NsCChart@@QAEXH@Z (public: void __thiscall NsCChart::CChart::SetSubTitlePosition(int))
                  ?SetSubTitlePosition@CChart@NsCChart@@QAEXHH@Z (public: void __thiscall NsCChart::CChart::SetSubTitlePosition(int,int))
                  ?SetSubTitlePosition@Classless@@YAXH@Z (void __cdecl Classless::SetSubTitlePosition(int))
                  ?SetSubTitlePosition@Classless@@YAXHH@Z (void __cdecl Classless::SetSubTitlePosition(int,int))
                  ?SetSubTitleShow@CChart@NsCChart@@QAEX_N@Z (public: void __thiscall NsCChart::CChart::SetSubTitleShow(bool))
                  ?SetSubTitleShow@CChart@NsCChart@@QAEX_NH@Z (public: void __thiscall NsCChart::CChart::SetSubTitleShow(bool,int))
                  ?SetSubTitleShow@Classless@@YAX_N@Z (void __cdecl Classless::SetSubTitleShow(bool))
                  ?SetSubTitleShow@Classless@@YAX_NH@Z (void __cdecl Classless::SetSubTitleShow(bool,int))
                  ?SetTBAxis@CChart@NsCChart@@QAEXXZ (public: void __thiscall NsCChart::CChart::SetTBAxis(void))
                  ?SetTBAxis@Classless@@YAXXZ (void __cdecl Classless::SetTBAxis(void))
                  ?SetTitle@CChart@NsCChart@@QAEXPB_W@Z (public: void __thiscall NsCChart::CChart::SetTitle(wchar_t const *))
                  ?SetTitle@CChart@NsCChart@@QAEXPB_WH@Z (public: void __thiscall NsCChart::CChart::SetTitle(wchar_t const *,int))
                  ?SetTitle@Classless@@YAXPB_W@Z (void __cdecl Classless::SetTitle(wchar_t const *))
                  ?SetTitle@Classless@@YAXPB_WH@Z (void __cdecl Classless::SetTitle(wchar_t const *,int))
                  ?SetTitleColor@CChart@NsCChart@@QAEXK@Z (public: void __thiscall NsCChart::CChart::SetTitleColor(unsigned long))
                  ?SetTitleColor@CChart@NsCChart@@QAEXKH@Z (public: void __thiscall NsCChart::CChart::SetTitleColor(unsigned long,int))
                  ?SetTitleColor@Classless@@YAXK@Z (void __cdecl Classless::SetTitleColor(unsigned long))
                  ?SetTitleColor@Classless@@YAXKH@Z (void __cdecl Classless::SetTitleColor(unsigned long,int))
                  ?SetTitleFont@CChart@NsCChart@@QAEXUtagLOGFONTW@@@Z (public: void __thiscall NsCChart::CChart::SetTitleFont(struct tagLOGFONTW))
                  ?SetTitleFont@CChart@NsCChart@@QAEXUtagLOGFONTW@@H@Z (public: void __thiscall NsCChart::CChart::SetTitleFont(struct tagLOGFONTW,int))
                  ?SetTitleFont@Classless@@YAXUtagLOGFONTW@@@Z (void __cdecl Classless::SetTitleFont(struct tagLOGFONTW))
                  ?SetTitleFont@Classless@@YAXUtagLOGFONTW@@H@Z (void __cdecl Classless::SetTitleFont(struct tagLOGFONTW,int))
                  ?SetTitlePosition@CChart@NsCChart@@QAEXH@Z (public: void __thiscall NsCChart::CChart::SetTitlePosition(int))
                  ?SetTitlePosition@CChart@NsCChart@@QAEXHH@Z (public: void __thiscall NsCChart::CChart::SetTitlePosition(int,int))
                  ?SetTitlePosition@Classless@@YAXH@Z (void __cdecl Classless::SetTitlePosition(int))
                  ?SetTitlePosition@Classless@@YAXHH@Z (void __cdecl Classless::SetTitlePosition(int,int))
                  ?SetTitleShow@CChart@NsCChart@@QAEX_N@Z (public: void __thiscall NsCChart::CChart::SetTitleShow(bool))
                  ?SetTitleShow@CChart@NsCChart@@QAEX_NH@Z (public: void __thiscall NsCChart::CChart::SetTitleShow(bool,int))
                  ?SetTitleShow@Classless@@YAX_N@Z (void __cdecl Classless::SetTitleShow(bool))
                  ?SetTitleShow@Classless@@YAX_NH@Z (void __cdecl Classless::SetTitleShow(bool,int))
                  ?SetTooltipType@CChart@NsCChart@@QAEXH@Z (public: void __thiscall NsCChart::CChart::SetTooltipType(int))
                  ?SetTooltipType@Classless@@YAXH@Z (void __cdecl Classless::SetTooltipType(int))
                  ?SetTopAxisAsLegend@CChart@NsCChart@@QAEX_N@Z (public: void __thiscall NsCChart::CChart::SetTopAxisAsLegend(bool))
                  ?SetTopAxisAsLegend@Classless@@YAX_N@Z (void __cdecl Classless::SetTopAxisAsLegend(bool))
                  ?SetType@CChart@NsCChart@@QAE_NH@Z (public: bool __thiscall NsCChart::CChart::SetType(int))
                  ?SetType@CChart@NsCChart@@QAE_NHPAUHWND__@@@Z (public: bool __thiscall NsCChart::CChart::SetType(int,struct HWND__ *))
                  ?SetType@Classless@@YA_NH@Z (bool __cdecl Classless::SetType(int))
                  ?SetType@Classless@@YA_NHPAUHWND__@@@Z (bool __cdecl Classless::SetType(int,struct HWND__ *))
                  ?SetUniteLayerColor@CChart@NsCChart@@QAEX_N@Z (public: void __thiscall NsCChart::CChart::SetUniteLayerColor(bool))
                  ?SetUniteLayerColor@Classless@@YAX_N@Z (void __cdecl Classless::SetUniteLayerColor(bool))
                  ?SetUserDrawingFunc@CChart@NsCChart@@QAEXP6AXPAXPAUHDC__@@UtagRECT@@20@Z0@Z (public: void __thiscall NsCChart::CChart::SetUserDrawingFunc(void (__cdecl*)(void *,struct HDC__ *,struct tagRECT,struct tagRECT,void *),void *))
                  ?SetUserDrawingFunc@CChart@NsCChart@@QAEXP6AXPAXPAUHDC__@@UtagRECT@@20@Z0H@Z (public: void __thiscall NsCChart::CChart::SetUserDrawingFunc(void (__cdecl*)(void *,struct HDC__ *,struct tagRECT,struct tagRECT,void *),void *,int))
                  ?SetUserFcnTooltip@CChart@NsCChart@@QAEXP6APA_WPAXUtagRECT@@1UtagPOINT@@PAN33HH0@Z0@Z (public: void __thiscall NsCChart::CChart::SetUserFcnTooltip(wchar_t * (__cdecl*)(void *,struct tagRECT,struct tagRECT,struct tagPOINT,double *,double *,double *,int,int,void *),void *))
                  ?SetUserFcnTooltip@Classless@@YAXP6APA_WPAXUtagRECT@@1UtagPOINT@@PAN33HH0@Z0@Z (void __cdecl Classless::SetUserFcnTooltip(wchar_t * (__cdecl*)(void *,struct tagRECT,struct tagRECT,struct tagPOINT,double *,double *,double *,int,int,void *),void *))
                  ?SetUserFlag@CChart@NsCChart@@QAEX_N@Z (public: void __thiscall NsCChart::CChart::SetUserFlag(bool))
                  ?SetUserFlag@Classless@@YAX_N@Z (void __cdecl Classless::SetUserFlag(bool))
                  ?SetUserPointer@CChart@NsCChart@@QAEXPAX@Z (public: void __thiscall NsCChart::CChart::SetUserPointer(void *))
                  ?SetUserPointer@Classless@@YAXPAX@Z (void __cdecl Classless::SetUserPointer(void *))
                  ?SetUserUpdateFunc@CChart@NsCChart@@QAEXP6AXPAX0@Z0@Z (public: void __thiscall NsCChart::CChart::SetUserUpdateFunc(void (__cdecl*)(void *,void *),void *))
                  ?SetUserUpdateFunc@CChart@NsCChart@@QAEXP6AXPAX0@Z0H@Z (public: void __thiscall NsCChart::CChart::SetUserUpdateFunc(void (__cdecl*)(void *,void *),void *,int))
                  ?SetVSelLower@CChart@NsCChart@@QAEXHH@Z (public: void __thiscall NsCChart::CChart::SetVSelLower(int,int))
                  ?SetVSelLower@Classless@@YAXHH@Z (void __cdecl Classless::SetVSelLower(int,int))
                  ?SetVSelUpper@CChart@NsCChart@@QAEXHH@Z (public: void __thiscall NsCChart::CChart::SetVSelUpper(int,int))
                  ?SetVSelUpper@Classless@@YAXHH@Z (void __cdecl Classless::SetVSelUpper(int,int))
                  ?SetWnd@CChart@NsCChart@@QAEXPAUHWND__@@@Z (public: void __thiscall NsCChart::CChart::SetWnd(struct HWND__ *))
                  ?SetXAutoMinorTicks@CChart@NsCChart@@QAEX_N@Z (public: void __thiscall NsCChart::CChart::SetXAutoMinorTicks(bool))
                  ?SetXAutoMinorTicks@CChart@NsCChart@@QAEX_NH@Z (public: void __thiscall NsCChart::CChart::SetXAutoMinorTicks(bool,int))
                  ?SetXAutoMinorTicks@Classless@@YAX_N@Z (void __cdecl Classless::SetXAutoMinorTicks(bool))
                  ?SetXAutoMinorTicks@Classless@@YAX_NH@Z (void __cdecl Classless::SetXAutoMinorTicks(bool,int))
                  ?SetXAutoRange@CChart@NsCChart@@QAEX_N@Z (public: void __thiscall NsCChart::CChart::SetXAutoRange(bool))
                  ?SetXAutoRange@CChart@NsCChart@@QAEX_NH@Z (public: void __thiscall NsCChart::CChart::SetXAutoRange(bool,int))
                  ?SetXAutoRange@Classless@@YAX_N@Z (void __cdecl Classless::SetXAutoRange(bool))
                  ?SetXAutoRange@Classless@@YAX_NH@Z (void __cdecl Classless::SetXAutoRange(bool,int))
                  ?SetXAutoTicks@CChart@NsCChart@@QAEX_N@Z (public: void __thiscall NsCChart::CChart::SetXAutoTicks(bool))
                  ?SetXAutoTicks@CChart@NsCChart@@QAEX_NH@Z (public: void __thiscall NsCChart::CChart::SetXAutoTicks(bool,int))
                  ?SetXAutoTicks@Classless@@YAX_N@Z (void __cdecl Classless::SetXAutoTicks(bool))
                  ?SetXAutoTicks@Classless@@YAX_NH@Z (void __cdecl Classless::SetXAutoTicks(bool,int))
                  ?SetXFloatTicks@CChart@NsCChart@@QAEX_N@Z (public: void __thiscall NsCChart::CChart::SetXFloatTicks(bool))
                  ?SetXFloatTicks@CChart@NsCChart@@QAEX_NH@Z (public: void __thiscall NsCChart::CChart::SetXFloatTicks(bool,int))
                  ?SetXFloatTicks@Classless@@YAX_N@Z (void __cdecl Classless::SetXFloatTicks(bool))
                  ?SetXFloatTicks@Classless@@YAX_NH@Z (void __cdecl Classless::SetXFloatTicks(bool,int))
                  ?SetXLabelRotate@CChart@NsCChart@@QAEX_NH@Z (public: void __thiscall NsCChart::CChart::SetXLabelRotate(bool,int))
                  ?SetXLabelRotate@CChart@NsCChart@@QAEX_NHH@Z (public: void __thiscall NsCChart::CChart::SetXLabelRotate(bool,int,int))
                  ?SetXLabelRotate@Classless@@YAX_NH@Z (void __cdecl Classless::SetXLabelRotate(bool,int))
                  ?SetXLabelRotate@Classless@@YAX_NHH@Z (void __cdecl Classless::SetXLabelRotate(bool,int,int))
                  ?SetXLabelRotateDirect@CChart@NsCChart@@QAEXHH@Z (public: void __thiscall NsCChart::CChart::SetXLabelRotateDirect(int,int))
                  ?SetXLabelRotateDirect@CChart@NsCChart@@QAEXHHH@Z (public: void __thiscall NsCChart::CChart::SetXLabelRotateDirect(int,int,int))
                  ?SetXLabelRotateDirect@Classless@@YAXHH@Z (void __cdecl Classless::SetXLabelRotateDirect(int,int))
                  ?SetXLabelRotateDirect@Classless@@YAXHHH@Z (void __cdecl Classless::SetXLabelRotateDirect(int,int,int))
                  ?SetXLogarithm@CChart@NsCChart@@QAEX_N@Z (public: void __thiscall NsCChart::CChart::SetXLogarithm(bool))
                  ?SetXLogarithm@CChart@NsCChart@@QAEX_NH@Z (public: void __thiscall NsCChart::CChart::SetXLogarithm(bool,int))
                  ?SetXLogarithm@Classless@@YAX_N@Z (void __cdecl Classless::SetXLogarithm(bool))
                  ?SetXLogarithm@Classless@@YAX_NH@Z (void __cdecl Classless::SetXLogarithm(bool,int))
                  ?SetXMinorTickCount@CChart@NsCChart@@QAEXH@Z (public: void __thiscall NsCChart::CChart::SetXMinorTickCount(int))
                  ?SetXMinorTickCount@CChart@NsCChart@@QAEXHH@Z (public: void __thiscall NsCChart::CChart::SetXMinorTickCount(int,int))
                  ?SetXMinorTickCount@Classless@@YAXH@Z (void __cdecl Classless::SetXMinorTickCount(int))
                  ?SetXMinorTickCount@Classless@@YAXHH@Z (void __cdecl Classless::SetXMinorTickCount(int,int))
                  ?SetXOpposite@CChart@NsCChart@@QAEX_N@Z (public: void __thiscall NsCChart::CChart::SetXOpposite(bool))
                  ?SetXOpposite@CChart@NsCChart@@QAEX_NH@Z (public: void __thiscall NsCChart::CChart::SetXOpposite(bool,int))
                  ?SetXOpposite@Classless@@YAX_N@Z (void __cdecl Classless::SetXOpposite(bool))
                  ?SetXOpposite@Classless@@YAX_NH@Z (void __cdecl Classless::SetXOpposite(bool,int))
                  ?SetXRange@CChart@NsCChart@@QAEXNN@Z (public: void __thiscall NsCChart::CChart::SetXRange(double,double))
                  ?SetXRange@CChart@NsCChart@@QAEXNNH@Z (public: void __thiscall NsCChart::CChart::SetXRange(double,double,int))
                  ?SetXRange@Classless@@YAXNN@Z (void __cdecl Classless::SetXRange(double,double))
                  ?SetXRange@Classless@@YAXNNH@Z (void __cdecl Classless::SetXRange(double,double,int))
                  ?SetXRangeByInterval@CChart@NsCChart@@QAEX_N@Z (public: void __thiscall NsCChart::CChart::SetXRangeByInterval(bool))
                  ?SetXRangeByInterval@CChart@NsCChart@@QAEX_NH@Z (public: void __thiscall NsCChart::CChart::SetXRangeByInterval(bool,int))
                  ?SetXRangeByInterval@Classless@@YAX_N@Z (void __cdecl Classless::SetXRangeByInterval(bool))
                  ?SetXRangeByInterval@Classless@@YAX_NH@Z (void __cdecl Classless::SetXRangeByInterval(bool,int))
                  ?SetXStartTime@CChart@NsCChart@@QAEXPA_W0H@Z (public: void __thiscall NsCChart::CChart::SetXStartTime(wchar_t *,wchar_t *,int))
                  ?SetXStartTime@Classless@@YAXPA_W0H@Z (void __cdecl Classless::SetXStartTime(wchar_t *,wchar_t *,int))
                  ?SetXTickCount@CChart@NsCChart@@QAEXH@Z (public: void __thiscall NsCChart::CChart::SetXTickCount(int))
                  ?SetXTickCount@CChart@NsCChart@@QAEXHH@Z (public: void __thiscall NsCChart::CChart::SetXTickCount(int,int))
                  ?SetXTickCount@Classless@@YAXH@Z (void __cdecl Classless::SetXTickCount(int))
                  ?SetXTickCount@Classless@@YAXHH@Z (void __cdecl Classless::SetXTickCount(int,int))
                  ?SetXTicksInterval@CChart@NsCChart@@QAEXN@Z (public: void __thiscall NsCChart::CChart::SetXTicksInterval(double))
                  ?SetXTicksInterval@CChart@NsCChart@@QAEXNH@Z (public: void __thiscall NsCChart::CChart::SetXTicksInterval(double,int))
                  ?SetXTicksInterval@Classless@@YAXN@Z (void __cdecl Classless::SetXTicksInterval(double))
                  ?SetXTicksInterval@Classless@@YAXNH@Z (void __cdecl Classless::SetXTicksInterval(double,int))
                  ?SetXUnit@CChart@NsCChart@@QAEXPA_WH@Z (public: void __thiscall NsCChart::CChart::SetXUnit(wchar_t *,int))
                  ?SetXUnit@Classless@@YAXPA_WH@Z (void __cdecl Classless::SetXUnit(wchar_t *,int))
                  ?SetYAutoMinorTicks@CChart@NsCChart@@QAEX_N@Z (public: void __thiscall NsCChart::CChart::SetYAutoMinorTicks(bool))
                  ?SetYAutoMinorTicks@CChart@NsCChart@@QAEX_NH@Z (public: void __thiscall NsCChart::CChart::SetYAutoMinorTicks(bool,int))
                  ?SetYAutoMinorTicks@Classless@@YAX_N@Z (void __cdecl Classless::SetYAutoMinorTicks(bool))
                  ?SetYAutoMinorTicks@Classless@@YAX_NH@Z (void __cdecl Classless::SetYAutoMinorTicks(bool,int))
                  ?SetYAutoRange@CChart@NsCChart@@QAEX_N@Z (public: void __thiscall NsCChart::CChart::SetYAutoRange(bool))
                  ?SetYAutoRange@CChart@NsCChart@@QAEX_NH@Z (public: void __thiscall NsCChart::CChart::SetYAutoRange(bool,int))
                  ?SetYAutoRange@Classless@@YAX_N@Z (void __cdecl Classless::SetYAutoRange(bool))
                  ?SetYAutoRange@Classless@@YAX_NH@Z (void __cdecl Classless::SetYAutoRange(bool,int))
                  ?SetYAutoTicks@CChart@NsCChart@@QAEX_N@Z (public: void __thiscall NsCChart::CChart::SetYAutoTicks(bool))
                  ?SetYAutoTicks@CChart@NsCChart@@QAEX_NH@Z (public: void __thiscall NsCChart::CChart::SetYAutoTicks(bool,int))
                  ?SetYAutoTicks@Classless@@YAX_N@Z (void __cdecl Classless::SetYAutoTicks(bool))
                  ?SetYAutoTicks@Classless@@YAX_NH@Z (void __cdecl Classless::SetYAutoTicks(bool,int))
                  ?SetYFloatTicks@CChart@NsCChart@@QAEX_N@Z (public: void __thiscall NsCChart::CChart::SetYFloatTicks(bool))
                  ?SetYFloatTicks@CChart@NsCChart@@QAEX_NH@Z (public: void __thiscall NsCChart::CChart::SetYFloatTicks(bool,int))
                  ?SetYFloatTicks@Classless@@YAX_N@Z (void __cdecl Classless::SetYFloatTicks(bool))
                  ?SetYFloatTicks@Classless@@YAX_NH@Z (void __cdecl Classless::SetYFloatTicks(bool,int))
                  ?SetYLogarithm@CChart@NsCChart@@QAEX_N@Z (public: void __thiscall NsCChart::CChart::SetYLogarithm(bool))
                  ?SetYLogarithm@CChart@NsCChart@@QAEX_NH@Z (public: void __thiscall NsCChart::CChart::SetYLogarithm(bool,int))
                  ?SetYLogarithm@Classless@@YAX_N@Z (void __cdecl Classless::SetYLogarithm(bool))
                  ?SetYLogarithm@Classless@@YAX_NH@Z (void __cdecl Classless::SetYLogarithm(bool,int))
                  ?SetYMinorTickCount@CChart@NsCChart@@QAEXH@Z (public: void __thiscall NsCChart::CChart::SetYMinorTickCount(int))
                  ?SetYMinorTickCount@CChart@NsCChart@@QAEXHH@Z (public: void __thiscall NsCChart::CChart::SetYMinorTickCount(int,int))
                  ?SetYMinorTickCount@Classless@@YAXH@Z (void __cdecl Classless::SetYMinorTickCount(int))
                  ?SetYMinorTickCount@Classless@@YAXHH@Z (void __cdecl Classless::SetYMinorTickCount(int,int))
                  ?SetYOpposite@CChart@NsCChart@@QAEX_N@Z (public: void __thiscall NsCChart::CChart::SetYOpposite(bool))
                  ?SetYOpposite@CChart@NsCChart@@QAEX_NH@Z (public: void __thiscall NsCChart::CChart::SetYOpposite(bool,int))
                  ?SetYOpposite@Classless@@YAX_N@Z (void __cdecl Classless::SetYOpposite(bool))
                  ?SetYOpposite@Classless@@YAX_NH@Z (void __cdecl Classless::SetYOpposite(bool,int))
                  ?SetYRange@CChart@NsCChart@@QAEXNN@Z (public: void __thiscall NsCChart::CChart::SetYRange(double,double))
                  ?SetYRange@CChart@NsCChart@@QAEXNNH@Z (public: void __thiscall NsCChart::CChart::SetYRange(double,double,int))
                  ?SetYRange@Classless@@YAXNN@Z (void __cdecl Classless::SetYRange(double,double))
                  ?SetYRange@Classless@@YAXNNH@Z (void __cdecl Classless::SetYRange(double,double,int))
                  ?SetYRangeByInterval@CChart@NsCChart@@QAEX_N@Z (public: void __thiscall NsCChart::CChart::SetYRangeByInterval(bool))
                  ?SetYRangeByInterval@CChart@NsCChart@@QAEX_NH@Z (public: void __thiscall NsCChart::CChart::SetYRangeByInterval(bool,int))
                  ?SetYRangeByInterval@Classless@@YAX_N@Z (void __cdecl Classless::SetYRangeByInterval(bool))
                  ?SetYRangeByInterval@Classless@@YAX_NH@Z (void __cdecl Classless::SetYRangeByInterval(bool,int))
                  ?SetYStartTime@CChart@NsCChart@@QAEXPA_W0H@Z (public: void __thiscall NsCChart::CChart::SetYStartTime(wchar_t *,wchar_t *,int))
                  ?SetYStartTime@Classless@@YAXPA_W0H@Z (void __cdecl Classless::SetYStartTime(wchar_t *,wchar_t *,int))
                  ?SetYTickCount@CChart@NsCChart@@QAEXH@Z (public: void __thiscall NsCChart::CChart::SetYTickCount(int))
                  ?SetYTickCount@CChart@NsCChart@@QAEXHH@Z (public: void __thiscall NsCChart::CChart::SetYTickCount(int,int))
                  ?SetYTickCount@Classless@@YAXH@Z (void __cdecl Classless::SetYTickCount(int))
                  ?SetYTickCount@Classless@@YAXHH@Z (void __cdecl Classless::SetYTickCount(int,int))
                  ?SetYTicksInterval@CChart@NsCChart@@QAEXN@Z (public: void __thiscall NsCChart::CChart::SetYTicksInterval(double))
                  ?SetYTicksInterval@CChart@NsCChart@@QAEXNH@Z (public: void __thiscall NsCChart::CChart::SetYTicksInterval(double,int))
                  ?SetYTicksInterval@Classless@@YAXN@Z (void __cdecl Classless::SetYTicksInterval(double))
                  ?SetYTicksInterval@Classless@@YAXNH@Z (void __cdecl Classless::SetYTicksInterval(double,int))
                  ?SetYUnit@CChart@NsCChart@@QAEXPA_WH@Z (public: void __thiscall NsCChart::CChart::SetYUnit(wchar_t *,int))
                  ?SetYUnit@Classless@@YAXPA_WH@Z (void __cdecl Classless::SetYUnit(wchar_t *,int))
                  ?SetZoomCenterMode@CChart@NsCChart@@QAEXH@Z (public: void __thiscall NsCChart::CChart::SetZoomCenterMode(int))
                  ?SetZoomCenterMode@Classless@@YAXH@Z (void __cdecl Classless::SetZoomCenterMode(int))
                  ?SetZoomFactor@CChart@NsCChart@@QAEXN@Z (public: void __thiscall NsCChart::CChart::SetZoomFactor(double))
                  ?SetZoomFactor@Classless@@YAXN@Z (void __cdecl Classless::SetZoomFactor(double))
                  ?SetZoomFactorX@CChart@NsCChart@@QAEXN@Z (public: void __thiscall NsCChart::CChart::SetZoomFactorX(double))
                  ?SetZoomFactorX@Classless@@YAXN@Z (void __cdecl Classless::SetZoomFactorX(double))
                  ?SetZoomFactorY@CChart@NsCChart@@QAEXN@Z (public: void __thiscall NsCChart::CChart::SetZoomFactorY(double))
                  ?SetZoomFactorY@Classless@@YAXN@Z (void __cdecl Classless::SetZoomFactorY(double))
                  ?SetZoomMode@CChart@NsCChart@@QAEX_N@Z (public: void __thiscall NsCChart::CChart::SetZoomMode(bool))
                  ?SetZoomMode@Classless@@YAX_N@Z (void __cdecl Classless::SetZoomMode(bool))
                  ?SetZoomModeBuildIn@CChart@NsCChart@@QAEX_N@Z (public: void __thiscall NsCChart::CChart::SetZoomModeBuildIn(bool))
                  ?SetZoomModeBuildIn@Classless@@YAX_N@Z (void __cdecl Classless::SetZoomModeBuildIn(bool))
                  ?SimpleMsgLoop@NsCChart@@YAHXZ (int __cdecl NsCChart::SimpleMsgLoop(void))
                  ?SlipXValue@CChart@NsCChart@@QAEHHHH@Z (public: int __thiscall NsCChart::CChart::SlipXValue(int,int,int))
                  ?SlipXValue@Classless@@YAHHHH@Z (int __cdecl Classless::SlipXValue(int,int,int))
                  ?SlipYValue@CChart@NsCChart@@QAEHHHH@Z (public: int __thiscall NsCChart::CChart::SlipYValue(int,int,int))
                  ?SlipYValue@Classless@@YAHHHH@Z (int __cdecl Classless::SlipYValue(int,int,int))
                  ?StartTimer@NsCChart@@YA_NIIKP6AHK@Z@Z (bool __cdecl NsCChart::StartTimer(unsigned int,unsigned int,unsigned long,int (__cdecl*)(unsigned long)))
                  ?StopTimer@NsCChart@@YAXXZ (void __cdecl NsCChart::StopTimer(void))
                  ?StringToTime@NsCChart@@YANPA_W0@Z (double __cdecl NsCChart::StringToTime(wchar_t *,wchar_t *))
                  ?UpdateCurve@CChart@NsCChart@@QAEHHPAN0HH@Z (public: int __thiscall NsCChart::CChart::UpdateCurve(int,double *,double *,int,int))
                  ?UpdateCurve@Classless@@YAHHPAN0HH@Z (int __cdecl Classless::UpdateCurve(int,double *,double *,int,int))
                  ?UpdateCurveByID@CChart@NsCChart@@QAEHHPAN0HH@Z (public: int __thiscall NsCChart::CChart::UpdateCurveByID(int,double *,double *,int,int))
                  ?UpdateCurveByID@Classless@@YAHHPAN0HH@Z (int __cdecl Classless::UpdateCurveByID(int,double *,double *,int,int))
                  ?WriteOneToFile@CChart@NsCChart@@QAE_NPA_WHH@Z (public: bool __thiscall NsCChart::CChart::WriteOneToFile(wchar_t *,int,int))
                  ?WriteOneToFile@Classless@@YA_NPA_WHH@Z (bool __cdecl Classless::WriteOneToFile(wchar_t *,int,int))
                  ?WriteToFile@CChart@NsCChart@@QAE_NPA_WH@Z (public: bool __thiscall NsCChart::CChart::WriteToFile(wchar_t *,int))
                  ?WriteToFile@Classless@@YA_NPA_WH@Z (bool __cdecl Classless::WriteToFile(wchar_t *,int))

  Summary

          C3 .debug$S
          14 .idata$2
          14 .idata$3
           4 .idata$4
           4 .idata$5
           C .idata$6
